
out/arm/core/tee.elf:     file format elf64-littleaarch64


Disassembly of section .text:

0000000001100000 <_start>:
#endif
		msr	sctlr_el1, x0
	.endm

FUNC _start , :
	mov	x19, x0		/* Save pagable part address */
 1100000:	aa0003f3 	mov	x19, x0
#if defined(CFG_DT_ADDR)
	ldr     x20, =CFG_DT_ADDR
#else
	mov	x20, x2		/* Save DT address */
 1100004:	aa0203f4 	mov	x20, x2
#endif

	adr	x0, reset_vect_table
 1100008:	10007fc0 	adr	x0, 1101000 <reset_vect_table>
	msr	vbar_el1, x0
 110000c:	d518c000 	msr	vbar_el1, x0
	isb
 1100010:	d5033fdf 	isb

	set_sctlr_el1
 1100014:	d5381000 	mrs	x0, sctlr_el1
 1100018:	b2740000 	orr	x0, x0, #0x1000
 110001c:	b27d0000 	orr	x0, x0, #0x8
 1100020:	b2690000 	orr	x0, x0, #0x800000
 1100024:	b26d0000 	orr	x0, x0, #0x80000
 1100028:	927ef800 	and	x0, x0, #0xfffffffffffffffd
 110002c:	d5181000 	msr	sctlr_el1, x0
	isb
 1100030:	d5033fdf 	isb
	 * The binary is built as:
	 * [Core, rodata and data] : In correct location
	 * [struct boot_embdata + data] : Should be moved to __end, first
	 * uint32_t tells the length of the struct + data
	 */
	adr_l	x0, __end		/* dst */
 1100034:	d0000480 	adrp	x0, 1192000 <stack_tmp+0x1d80>
 1100038:	910e0000 	add	x0, x0, #0x380
	adr_l	x1, __data_end		/* src */
 110003c:	b00002e1 	adrp	x1, 115d000 <_curve_names+0x590>
 1100040:	91300021 	add	x1, x1, #0xc00
	ldr	w2, [x1]		/* struct boot_embdata::total_len */
 1100044:	b9400022 	ldr	w2, [x1]
	/* Copy backwards (as memmove) in case we're overlapping */
	add	x0, x0, x2
 1100048:	8b020000 	add	x0, x0, x2
	add	x1, x1, x2
 110004c:	8b020021 	add	x1, x1, x2
	adr	x3, cached_mem_end
 1100050:	10000943 	adr	x3, 1100178 <cached_mem_end>
	str	x0, [x3]
 1100054:	f9000060 	str	x0, [x3]
	adr_l	x2, __end
 1100058:	d0000482 	adrp	x2, 1192000 <stack_tmp+0x1d80>
 110005c:	910e0042 	add	x2, x2, #0x380

0000000001100060 <copy_init>:

copy_init:
	ldp	x3, x4, [x1, #-16]!
 1100060:	a9ff1023 	ldp	x3, x4, [x1, #-16]!
	stp	x3, x4, [x0, #-16]!
 1100064:	a9bf1003 	stp	x3, x4, [x0, #-16]!
	cmp	x0, x2
 1100068:	eb02001f 	cmp	x0, x2
	b.gt	copy_init
 110006c:	54ffffac 	b.gt	1100060 <copy_init>

	/*
	 * Clear .bss, this code obviously depends on the linker keeping
	 * start/end of .bss at least 8 byte aligned.
	 */
	adr_l	x0, __bss_start
 1100070:	b00002e0 	adrp	x0, 115d000 <_curve_names+0x590>
 1100074:	91300000 	add	x0, x0, #0xc00
	adr_l	x1, __bss_end
 1100078:	b0000341 	adrp	x1, 1169000 <threads+0x540>
 110007c:	9137a021 	add	x1, x1, #0xde8

0000000001100080 <clear_bss>:
clear_bss:
	str	xzr, [x0], #8
 1100080:	f800841f 	str	xzr, [x0], #8
	cmp	x0, x1
 1100084:	eb01001f 	cmp	x0, x1
	b.lt	clear_bss
 1100088:	54ffffcb 	b.lt	1100080 <clear_bss>  // b.tstop
	cmp	x0, x1
	b.lt	clear_nex_bss
#endif

	/* Setup SP_EL0 and SP_EL1, SP will be set to SP_EL0 */
	set_sp
 110008c:	94000632 	bl	1101954 <__get_core_pos>
 1100090:	f100101f 	cmp	x0, #0x4
 1100094:	5400c72a 	b.ge	1101978 <unhandled_cpu>  // b.tcont
 1100098:	1000c5c1 	adr	x1, 1101950 <stack_tmp_stride>
 110009c:	b9400021 	ldr	w1, [x1]
 11000a0:	9b017c01 	mul	x1, x0, x1
 11000a4:	b0000000 	adrp	x0, 1101000 <reset_vect_table>
 11000a8:	911e2000 	add	x0, x0, #0x788
 11000ac:	f9400000 	ldr	x0, [x0]
 11000b0:	d50040bf 	msr	spsel, #0x0
 11000b4:	8b20603f 	add	sp, x1, x0
 11000b8:	9400142f 	bl	1105174 <thread_get_core_local>
 11000bc:	d50041bf 	msr	spsel, #0x1
 11000c0:	9100001f 	mov	sp, x0
 11000c4:	d50040bf 	msr	spsel, #0x0

	bl	thread_init_thread_core_local
 11000c8:	9400161a 	bl	1105930 <thread_init_thread_core_local>

	/* Enable aborts now that we can receive exceptions */
	msr	daifclr, #DAIFBIT_ABT
 11000cc:	d50344ff 	msr	daifclr, #0x4
	 * Invalidate dcache for all memory used during initialization to
	 * avoid nasty surprices when the cache is turned on. We must not
	 * invalidate memory not used by OP-TEE since we may invalidate
	 * entries used by for instance ARM Trusted Firmware.
	 */
	adr_l	x0, __text_start
 11000d0:	90000000 	adrp	x0, 1100000 <_start>
 11000d4:	91000000 	add	x0, x0, #0x0
	ldr	x1, cached_mem_end
 11000d8:	58000501 	ldr	x1, 1100178 <cached_mem_end>
	sub	x1, x1, x0
 11000dc:	cb000021 	sub	x1, x1, x0
	bl	dcache_cleaninv_range
 11000e0:	94001137 	bl	11045bc <dcache_cleaninv_range>

	/* Enable Console */
	bl	console_init
 11000e4:	940033fd 	bl	110d0d8 <console_init>

#ifdef CFG_CORE_ASLR
	mov	x0, x20
 11000e8:	aa1403e0 	mov	x0, x20
	bl	get_aslr_seed
 11000ec:	94002005 	bl	1108100 <get_aslr_seed>
#else
	mov	x0, #0
#endif

	adr	x1, boot_mmu_config
 11000f0:	10003cc1 	adr	x1, 1100888 <boot_mmu_config>
	bl	core_init_mmu_map
 11000f4:	94002334 	bl	1108dc4 <core_init_mmu_map>
	/*
	 * Process relocation information again updating for the new
	 * offset. We're doing this now before MMU is enabled as some of
	 * the memory will become write protected.
	 */
	ldr	x0, boot_mmu_config + CORE_MMU_CONFIG_LOAD_OFFSET
 11000f8:	58003d80 	ldr	x0, 11008a8 <boot_mmu_config+0x20>
	/*
	 * Update cached_mem_end address with load offset since it was
	 * calculated before relocation.
	 */
	adr	x5, cached_mem_end
 11000fc:	100003e5 	adr	x5, 1100178 <cached_mem_end>
	ldr	x6, [x5]
 1100100:	f94000a6 	ldr	x6, [x5]
	add	x6, x6, x0
 1100104:	8b0000c6 	add	x6, x6, x0
	str	x6, [x5]
 1100108:	f90000a6 	str	x6, [x5]
	bl	relocate
 110010c:	9400200a 	bl	1108134 <relocate>
#endif

	bl	__get_core_pos
 1100110:	94000611 	bl	1101954 <__get_core_pos>
	bl	enable_mmu
 1100114:	940001bb 	bl	1100800 <enable_mmu>
	/*
	 * Reinitialize console, since register_serial_console() has
	 * previously registered a PA and with ASLR the VA is different
	 * from the PA.
	 */
	bl	console_init
 1100118:	940033f0 	bl	110d0d8 <console_init>
	 * default_partition which has been relocated now to a different VA
	 */
	bl	core_mmu_set_default_prtn_tbl
#endif

	mov	x0, x19		/* pagable part address */
 110011c:	aa1303e0 	mov	x0, x19
	mov	x1, #-1
 1100120:	92800001 	mov	x1, #0xffffffffffffffff    	// #-1
	bl	boot_init_primary_early
 1100124:	94001fc0 	bl	1108024 <boot_init_primary_early>
#ifndef CFG_VIRTUALIZATION
	mov	x21, sp
 1100128:	910003f5 	mov	x21, sp
	adr_l	x0, threads
 110012c:	90000340 	adrp	x0, 1168000 <data.5093+0x9e28>
 1100130:	912b0000 	add	x0, x0, #0xac0
	ldr	x0, [x0, #THREAD_CTX_STACK_VA_END]
 1100134:	f9409000 	ldr	x0, [x0, #288]
	mov	sp, x0
 1100138:	9100001f 	mov	sp, x0
#endif
	mov	x0, x20		/* DT address */
 110013c:	aa1403e0 	mov	x0, x20
	bl	boot_init_primary_late
 1100140:	94001f50 	bl	1107e80 <boot_init_primary_late>
#ifndef CFG_VIRTUALIZATION
	mov	sp, x21
 1100144:	910002bf 	mov	sp, x21
	/*
	 * In case we've touched memory that secondary CPUs will use before
	 * they have turned on their D-cache, clean and invalidate the
	 * D-cache before exiting to normal world.
	 */
	adr_l	x0, __text_start
 1100148:	90000000 	adrp	x0, 1100000 <_start>
 110014c:	91000000 	add	x0, x0, #0x0
	ldr	x1, cached_mem_end
 1100150:	58000141 	ldr	x1, 1100178 <cached_mem_end>
	sub	x1, x1, x0
 1100154:	cb000021 	sub	x1, x1, x0
	bl	dcache_cleaninv_range
 1100158:	94001119 	bl	11045bc <dcache_cleaninv_range>
	 * Clear current thread id now to allow the thread to be reused on
	 * next entry. Matches the thread_init_boot_thread in
	 * boot.c.
	 */
#ifndef CFG_VIRTUALIZATION
	bl 	thread_clr_boot_thread
 110015c:	9400140b 	bl	1105188 <thread_clr_boot_thread>
	/*
	 * Pass the vector address returned from main_init
	 * Compensate for the load offset since cpu_on_handler() is
	 * called with MMU off.
	 */
	ldr	x0, boot_mmu_config + CORE_MMU_CONFIG_LOAD_OFFSET
 1100160:	58003a40 	ldr	x0, 11008a8 <boot_mmu_config+0x20>
	adr	x1, thread_vector_table
 1100164:	1000ba41 	adr	x1, 11018ac <thread_vector_table>
	sub	x1, x1, x0
 1100168:	cb000021 	sub	x1, x1, x0
	mov	x0, #TEESMC_OPTEED_RETURN_ENTRY_DONE
 110016c:	d2b7c000 	mov	x0, #0xbe000000            	// #3187671040
	smc	#0
 1100170:	d4000003 	smc	#0x0
	b	.	/* SMC should not return */
 1100174:	14000000 	b	1100174 <clear_bss+0xf4>

0000000001100178 <cached_mem_end>:
	...

0000000001100180 <__identity_map_init_start>:
	...

0000000001100800 <enable_mmu>:
 * physical address and virtual address is the same. After MMU has been
 * enabled the instruction pointer will be updated to execute as the new
 * offset instead. Stack pointers and the return address are updated.
 */
LOCAL_FUNC enable_mmu , : , .identity_map
	adr	x1, boot_mmu_config
 1100800:	10000441 	adr	x1, 1100888 <boot_mmu_config>
	load_xregs x1, 0, 2, 6
 1100804:	a9400c22 	ldp	x2, x3, [x1]
 1100808:	a9411424 	ldp	x4, x5, [x1, #16]
 110080c:	f9401026 	ldr	x6, [x1, #32]
	 * x3 = mair_el1
	 * x4 = ttbr0_el1_base
	 * x5 = ttbr0_core_offset
	 * x6 = load_offset
	 */
	msr	tcr_el1, x2
 1100810:	d5182042 	msr	tcr_el1, x2
	msr	mair_el1, x3
 1100814:	d518a203 	msr	mair_el1, x3

	/*
	 * ttbr0_el1 = ttbr0_el1_base + ttbr0_core_offset * core_pos
	 */
	madd	x1, x5, x0, x4
 1100818:	9b0010a1 	madd	x1, x5, x0, x4
	msr	ttbr0_el1, x1
 110081c:	d5182001 	msr	ttbr0_el1, x1
	msr	ttbr1_el1, xzr
 1100820:	d518203f 	msr	ttbr1_el1, xzr
	isb
 1100824:	d5033fdf 	isb

	/* Invalidate TLB */
	tlbi	vmalle1
 1100828:	d508871f 	tlbi	vmalle1

	/*
	 * Make sure translation table writes have drained into memory and
	 * the TLB invalidation is complete.
	 */
	dsb	sy
 110082c:	d5033f9f 	dsb	sy
	isb
 1100830:	d5033fdf 	isb

	/* Enable the MMU */
	mrs	x1, sctlr_el1
 1100834:	d5381001 	mrs	x1, sctlr_el1
	orr	x1, x1, #SCTLR_M
 1100838:	b2400021 	orr	x1, x1, #0x1
	msr	sctlr_el1, x1
 110083c:	d5181001 	msr	sctlr_el1, x1
	isb
 1100840:	d5033fdf 	isb

	/* Update vbar */
	mrs	x1, vbar_el1
 1100844:	d538c001 	mrs	x1, vbar_el1
	add	x1, x1, x6
 1100848:	8b060021 	add	x1, x1, x6
	msr	vbar_el1, x1
 110084c:	d518c001 	msr	vbar_el1, x1
	isb
 1100850:	d5033fdf 	isb

	/* Invalidate instruction cache and branch predictor */
	ic	iallu
 1100854:	d508751f 	ic	iallu
	isb
 1100858:	d5033fdf 	isb

	/* Enable I and D cache */
	mrs	x1, sctlr_el1
 110085c:	d5381001 	mrs	x1, sctlr_el1
	orr	x1, x1, #SCTLR_I
 1100860:	b2740021 	orr	x1, x1, #0x1000
	orr	x1, x1, #SCTLR_C
 1100864:	b27e0021 	orr	x1, x1, #0x4
	msr	sctlr_el1, x1
 1100868:	d5181001 	msr	sctlr_el1, x1
	isb
 110086c:	d5033fdf 	isb

	/* Adjust stack pointers and return address */
	msr	spsel, #1
 1100870:	d50041bf 	msr	spsel, #0x1
	add	sp, sp, x6
 1100874:	8b2663ff 	add	sp, sp, x6
	msr	spsel, #0
 1100878:	d50040bf 	msr	spsel, #0x0
	add	sp, sp, x6
 110087c:	8b2663ff 	add	sp, sp, x6
	add	x30, x30, x6
 1100880:	8b0603de 	add	x30, x30, x6

	ret
 1100884:	d65f03c0 	ret

0000000001100888 <boot_mmu_config>:
	...
 11008b0:	d503201f d503201f d503201f d503201f     . ... ... ... ..
 11008c0:	d503201f d503201f d503201f d503201f     . ... ... ... ..
 11008d0:	d503201f d503201f d503201f d503201f     . ... ... ... ..
 11008e0:	d503201f d503201f d503201f d503201f     . ... ... ... ..
 11008f0:	d503201f d503201f d503201f d503201f     . ... ... ... ..
 1100900:	d503201f d503201f d503201f d503201f     . ... ... ... ..
 1100910:	d503201f d503201f d503201f d503201f     . ... ... ... ..
 1100920:	d503201f d503201f d503201f d503201f     . ... ... ... ..
 1100930:	d503201f d503201f d503201f d503201f     . ... ... ... ..
 1100940:	d503201f d503201f d503201f d503201f     . ... ... ... ..
 1100950:	d503201f d503201f d503201f d503201f     . ... ... ... ..
 1100960:	d503201f d503201f d503201f d503201f     . ... ... ... ..
 1100970:	d503201f d503201f d503201f d503201f     . ... ... ... ..
 1100980:	d503201f d503201f d503201f d503201f     . ... ... ... ..
 1100990:	d503201f d503201f d503201f d503201f     . ... ... ... ..
 11009a0:	d503201f d503201f d503201f d503201f     . ... ... ... ..
 11009b0:	d503201f d503201f d503201f d503201f     . ... ... ... ..
 11009c0:	d503201f d503201f d503201f d503201f     . ... ... ... ..
 11009d0:	d503201f d503201f d503201f d503201f     . ... ... ... ..
 11009e0:	d503201f d503201f d503201f d503201f     . ... ... ... ..
 11009f0:	d503201f d503201f d503201f d503201f     . ... ... ... ..
 1100a00:	d503201f d503201f d503201f d503201f     . ... ... ... ..
 1100a10:	d503201f d503201f d503201f d503201f     . ... ... ... ..
 1100a20:	d503201f d503201f d503201f d503201f     . ... ... ... ..
 1100a30:	d503201f d503201f d503201f d503201f     . ... ... ... ..
 1100a40:	d503201f d503201f d503201f d503201f     . ... ... ... ..
 1100a50:	d503201f d503201f d503201f d503201f     . ... ... ... ..
 1100a60:	d503201f d503201f d503201f d503201f     . ... ... ... ..
 1100a70:	d503201f d503201f d503201f d503201f     . ... ... ... ..
 1100a80:	d503201f d503201f d503201f d503201f     . ... ... ... ..
 1100a90:	d503201f d503201f d503201f d503201f     . ... ... ... ..
 1100aa0:	d503201f d503201f d503201f d503201f     . ... ... ... ..
 1100ab0:	d503201f d503201f d503201f d503201f     . ... ... ... ..
 1100ac0:	d503201f d503201f d503201f d503201f     . ... ... ... ..
 1100ad0:	d503201f d503201f d503201f d503201f     . ... ... ... ..
 1100ae0:	d503201f d503201f d503201f d503201f     . ... ... ... ..
 1100af0:	d503201f d503201f d503201f d503201f     . ... ... ... ..
 1100b00:	d503201f d503201f d503201f d503201f     . ... ... ... ..
 1100b10:	d503201f d503201f d503201f d503201f     . ... ... ... ..
 1100b20:	d503201f d503201f d503201f d503201f     . ... ... ... ..
 1100b30:	d503201f d503201f d503201f d503201f     . ... ... ... ..
 1100b40:	d503201f d503201f d503201f d503201f     . ... ... ... ..
 1100b50:	d503201f d503201f d503201f d503201f     . ... ... ... ..
 1100b60:	d503201f d503201f d503201f d503201f     . ... ... ... ..
 1100b70:	d503201f d503201f d503201f d503201f     . ... ... ... ..
 1100b80:	d503201f d503201f d503201f d503201f     . ... ... ... ..
 1100b90:	d503201f d503201f d503201f d503201f     . ... ... ... ..
 1100ba0:	d503201f d503201f d503201f d503201f     . ... ... ... ..
 1100bb0:	d503201f d503201f d503201f d503201f     . ... ... ... ..
 1100bc0:	d503201f d503201f d503201f d503201f     . ... ... ... ..
 1100bd0:	d503201f d503201f d503201f d503201f     . ... ... ... ..
 1100be0:	d503201f d503201f d503201f d503201f     . ... ... ... ..
 1100bf0:	d503201f d503201f d503201f d503201f     . ... ... ... ..
 1100c00:	d503201f d503201f d503201f d503201f     . ... ... ... ..
 1100c10:	d503201f d503201f d503201f d503201f     . ... ... ... ..
 1100c20:	d503201f d503201f d503201f d503201f     . ... ... ... ..
 1100c30:	d503201f d503201f d503201f d503201f     . ... ... ... ..
 1100c40:	d503201f d503201f d503201f d503201f     . ... ... ... ..
 1100c50:	d503201f d503201f d503201f d503201f     . ... ... ... ..
 1100c60:	d503201f d503201f d503201f d503201f     . ... ... ... ..
 1100c70:	d503201f d503201f d503201f d503201f     . ... ... ... ..
 1100c80:	d503201f d503201f d503201f d503201f     . ... ... ... ..
 1100c90:	d503201f d503201f d503201f d503201f     . ... ... ... ..
 1100ca0:	d503201f d503201f d503201f d503201f     . ... ... ... ..
 1100cb0:	d503201f d503201f d503201f d503201f     . ... ... ... ..
 1100cc0:	d503201f d503201f d503201f d503201f     . ... ... ... ..
 1100cd0:	d503201f d503201f d503201f d503201f     . ... ... ... ..
 1100ce0:	d503201f d503201f d503201f d503201f     . ... ... ... ..
 1100cf0:	d503201f d503201f d503201f d503201f     . ... ... ... ..
 1100d00:	d503201f d503201f d503201f d503201f     . ... ... ... ..
 1100d10:	d503201f d503201f d503201f d503201f     . ... ... ... ..
 1100d20:	d503201f d503201f d503201f d503201f     . ... ... ... ..
 1100d30:	d503201f d503201f d503201f d503201f     . ... ... ... ..
 1100d40:	d503201f d503201f d503201f d503201f     . ... ... ... ..
 1100d50:	d503201f d503201f d503201f d503201f     . ... ... ... ..
 1100d60:	d503201f d503201f d503201f d503201f     . ... ... ... ..
 1100d70:	d503201f d503201f d503201f d503201f     . ... ... ... ..
 1100d80:	d503201f d503201f d503201f d503201f     . ... ... ... ..
 1100d90:	d503201f d503201f d503201f d503201f     . ... ... ... ..
 1100da0:	d503201f d503201f d503201f d503201f     . ... ... ... ..
 1100db0:	d503201f d503201f d503201f d503201f     . ... ... ... ..
 1100dc0:	d503201f d503201f d503201f d503201f     . ... ... ... ..
 1100dd0:	d503201f d503201f d503201f d503201f     . ... ... ... ..
 1100de0:	d503201f d503201f d503201f d503201f     . ... ... ... ..
 1100df0:	d503201f d503201f d503201f d503201f     . ... ... ... ..
 1100e00:	d503201f d503201f d503201f d503201f     . ... ... ... ..
 1100e10:	d503201f d503201f d503201f d503201f     . ... ... ... ..
 1100e20:	d503201f d503201f d503201f d503201f     . ... ... ... ..
 1100e30:	d503201f d503201f d503201f d503201f     . ... ... ... ..
 1100e40:	d503201f d503201f d503201f d503201f     . ... ... ... ..
 1100e50:	d503201f d503201f d503201f d503201f     . ... ... ... ..
 1100e60:	d503201f d503201f d503201f d503201f     . ... ... ... ..
 1100e70:	d503201f d503201f d503201f d503201f     . ... ... ... ..
 1100e80:	d503201f d503201f d503201f d503201f     . ... ... ... ..
 1100e90:	d503201f d503201f d503201f d503201f     . ... ... ... ..
 1100ea0:	d503201f d503201f d503201f d503201f     . ... ... ... ..
 1100eb0:	d503201f d503201f d503201f d503201f     . ... ... ... ..
 1100ec0:	d503201f d503201f d503201f d503201f     . ... ... ... ..
 1100ed0:	d503201f d503201f d503201f d503201f     . ... ... ... ..
 1100ee0:	d503201f d503201f d503201f d503201f     . ... ... ... ..
 1100ef0:	d503201f d503201f d503201f d503201f     . ... ... ... ..
 1100f00:	d503201f d503201f d503201f d503201f     . ... ... ... ..
 1100f10:	d503201f d503201f d503201f d503201f     . ... ... ... ..
 1100f20:	d503201f d503201f d503201f d503201f     . ... ... ... ..
 1100f30:	d503201f d503201f d503201f d503201f     . ... ... ... ..
 1100f40:	d503201f d503201f d503201f d503201f     . ... ... ... ..
 1100f50:	d503201f d503201f d503201f d503201f     . ... ... ... ..
 1100f60:	d503201f d503201f d503201f d503201f     . ... ... ... ..
 1100f70:	d503201f d503201f d503201f d503201f     . ... ... ... ..
 1100f80:	d503201f d503201f d503201f d503201f     . ... ... ... ..
 1100f90:	d503201f d503201f d503201f d503201f     . ... ... ... ..
 1100fa0:	d503201f d503201f d503201f d503201f     . ... ... ... ..
 1100fb0:	d503201f d503201f d503201f d503201f     . ... ... ... ..
 1100fc0:	d503201f d503201f d503201f d503201f     . ... ... ... ..
 1100fd0:	d503201f d503201f d503201f d503201f     . ... ... ... ..
 1100fe0:	d503201f d503201f d503201f d503201f     . ... ... ... ..
 1100ff0:	d503201f d503201f d503201f d503201f     . ... ... ... ..

0000000001101000 <reset_vect_table>:
	/* -----------------------------------------------------
	 * Current EL with SP0 : 0x0 - 0x180
	 * -----------------------------------------------------
	 */
SynchronousExceptionSP0:
	b	SynchronousExceptionSP0
 1101000:	14000000 	b	1101000 <reset_vect_table>
 1101004:	d503201f 	nop
 1101008:	d503201f 	nop
 110100c:	d503201f 	nop
 1101010:	d503201f 	nop
 1101014:	d503201f 	nop
 1101018:	d503201f 	nop
 110101c:	d503201f 	nop
 1101020:	d503201f 	nop
 1101024:	d503201f 	nop
 1101028:	d503201f 	nop
 110102c:	d503201f 	nop
 1101030:	d503201f 	nop
 1101034:	d503201f 	nop
 1101038:	d503201f 	nop
 110103c:	d503201f 	nop
 1101040:	d503201f 	nop
 1101044:	d503201f 	nop
 1101048:	d503201f 	nop
 110104c:	d503201f 	nop
 1101050:	d503201f 	nop
 1101054:	d503201f 	nop
 1101058:	d503201f 	nop
 110105c:	d503201f 	nop
 1101060:	d503201f 	nop
 1101064:	d503201f 	nop
 1101068:	d503201f 	nop
 110106c:	d503201f 	nop
 1101070:	d503201f 	nop
 1101074:	d503201f 	nop
 1101078:	d503201f 	nop
 110107c:	d503201f 	nop

0000000001101080 <IrqSP0>:
	check_vector_size SynchronousExceptionSP0

	.align	7
IrqSP0:
	b	IrqSP0
 1101080:	14000000 	b	1101080 <IrqSP0>
 1101084:	d503201f 	nop
 1101088:	d503201f 	nop
 110108c:	d503201f 	nop
 1101090:	d503201f 	nop
 1101094:	d503201f 	nop
 1101098:	d503201f 	nop
 110109c:	d503201f 	nop
 11010a0:	d503201f 	nop
 11010a4:	d503201f 	nop
 11010a8:	d503201f 	nop
 11010ac:	d503201f 	nop
 11010b0:	d503201f 	nop
 11010b4:	d503201f 	nop
 11010b8:	d503201f 	nop
 11010bc:	d503201f 	nop
 11010c0:	d503201f 	nop
 11010c4:	d503201f 	nop
 11010c8:	d503201f 	nop
 11010cc:	d503201f 	nop
 11010d0:	d503201f 	nop
 11010d4:	d503201f 	nop
 11010d8:	d503201f 	nop
 11010dc:	d503201f 	nop
 11010e0:	d503201f 	nop
 11010e4:	d503201f 	nop
 11010e8:	d503201f 	nop
 11010ec:	d503201f 	nop
 11010f0:	d503201f 	nop
 11010f4:	d503201f 	nop
 11010f8:	d503201f 	nop
 11010fc:	d503201f 	nop

0000000001101100 <FiqSP0>:
	check_vector_size IrqSP0

	.align	7
FiqSP0:
	b	FiqSP0
 1101100:	14000000 	b	1101100 <FiqSP0>
 1101104:	d503201f 	nop
 1101108:	d503201f 	nop
 110110c:	d503201f 	nop
 1101110:	d503201f 	nop
 1101114:	d503201f 	nop
 1101118:	d503201f 	nop
 110111c:	d503201f 	nop
 1101120:	d503201f 	nop
 1101124:	d503201f 	nop
 1101128:	d503201f 	nop
 110112c:	d503201f 	nop
 1101130:	d503201f 	nop
 1101134:	d503201f 	nop
 1101138:	d503201f 	nop
 110113c:	d503201f 	nop
 1101140:	d503201f 	nop
 1101144:	d503201f 	nop
 1101148:	d503201f 	nop
 110114c:	d503201f 	nop
 1101150:	d503201f 	nop
 1101154:	d503201f 	nop
 1101158:	d503201f 	nop
 110115c:	d503201f 	nop
 1101160:	d503201f 	nop
 1101164:	d503201f 	nop
 1101168:	d503201f 	nop
 110116c:	d503201f 	nop
 1101170:	d503201f 	nop
 1101174:	d503201f 	nop
 1101178:	d503201f 	nop
 110117c:	d503201f 	nop

0000000001101180 <SErrorSP0>:
	check_vector_size FiqSP0

	.align	7
SErrorSP0:
	b	SErrorSP0
 1101180:	14000000 	b	1101180 <SErrorSP0>
 1101184:	d503201f 	nop
 1101188:	d503201f 	nop
 110118c:	d503201f 	nop
 1101190:	d503201f 	nop
 1101194:	d503201f 	nop
 1101198:	d503201f 	nop
 110119c:	d503201f 	nop
 11011a0:	d503201f 	nop
 11011a4:	d503201f 	nop
 11011a8:	d503201f 	nop
 11011ac:	d503201f 	nop
 11011b0:	d503201f 	nop
 11011b4:	d503201f 	nop
 11011b8:	d503201f 	nop
 11011bc:	d503201f 	nop
 11011c0:	d503201f 	nop
 11011c4:	d503201f 	nop
 11011c8:	d503201f 	nop
 11011cc:	d503201f 	nop
 11011d0:	d503201f 	nop
 11011d4:	d503201f 	nop
 11011d8:	d503201f 	nop
 11011dc:	d503201f 	nop
 11011e0:	d503201f 	nop
 11011e4:	d503201f 	nop
 11011e8:	d503201f 	nop
 11011ec:	d503201f 	nop
 11011f0:	d503201f 	nop
 11011f4:	d503201f 	nop
 11011f8:	d503201f 	nop
 11011fc:	d503201f 	nop

0000000001101200 <SynchronousExceptionSPx>:
	 * Current EL with SPx: 0x200 - 0x380
	 * -----------------------------------------------------
	 */
	.align	7
SynchronousExceptionSPx:
	b	SynchronousExceptionSPx
 1101200:	14000000 	b	1101200 <SynchronousExceptionSPx>
 1101204:	d503201f 	nop
 1101208:	d503201f 	nop
 110120c:	d503201f 	nop
 1101210:	d503201f 	nop
 1101214:	d503201f 	nop
 1101218:	d503201f 	nop
 110121c:	d503201f 	nop
 1101220:	d503201f 	nop
 1101224:	d503201f 	nop
 1101228:	d503201f 	nop
 110122c:	d503201f 	nop
 1101230:	d503201f 	nop
 1101234:	d503201f 	nop
 1101238:	d503201f 	nop
 110123c:	d503201f 	nop
 1101240:	d503201f 	nop
 1101244:	d503201f 	nop
 1101248:	d503201f 	nop
 110124c:	d503201f 	nop
 1101250:	d503201f 	nop
 1101254:	d503201f 	nop
 1101258:	d503201f 	nop
 110125c:	d503201f 	nop
 1101260:	d503201f 	nop
 1101264:	d503201f 	nop
 1101268:	d503201f 	nop
 110126c:	d503201f 	nop
 1101270:	d503201f 	nop
 1101274:	d503201f 	nop
 1101278:	d503201f 	nop
 110127c:	d503201f 	nop

0000000001101280 <IrqSPx>:
	check_vector_size SynchronousExceptionSPx

	.align	7
IrqSPx:
	b	IrqSPx
 1101280:	14000000 	b	1101280 <IrqSPx>
 1101284:	d503201f 	nop
 1101288:	d503201f 	nop
 110128c:	d503201f 	nop
 1101290:	d503201f 	nop
 1101294:	d503201f 	nop
 1101298:	d503201f 	nop
 110129c:	d503201f 	nop
 11012a0:	d503201f 	nop
 11012a4:	d503201f 	nop
 11012a8:	d503201f 	nop
 11012ac:	d503201f 	nop
 11012b0:	d503201f 	nop
 11012b4:	d503201f 	nop
 11012b8:	d503201f 	nop
 11012bc:	d503201f 	nop
 11012c0:	d503201f 	nop
 11012c4:	d503201f 	nop
 11012c8:	d503201f 	nop
 11012cc:	d503201f 	nop
 11012d0:	d503201f 	nop
 11012d4:	d503201f 	nop
 11012d8:	d503201f 	nop
 11012dc:	d503201f 	nop
 11012e0:	d503201f 	nop
 11012e4:	d503201f 	nop
 11012e8:	d503201f 	nop
 11012ec:	d503201f 	nop
 11012f0:	d503201f 	nop
 11012f4:	d503201f 	nop
 11012f8:	d503201f 	nop
 11012fc:	d503201f 	nop

0000000001101300 <FiqSPx>:
	check_vector_size IrqSPx

	.align	7
FiqSPx:
	b	FiqSPx
 1101300:	14000000 	b	1101300 <FiqSPx>
 1101304:	d503201f 	nop
 1101308:	d503201f 	nop
 110130c:	d503201f 	nop
 1101310:	d503201f 	nop
 1101314:	d503201f 	nop
 1101318:	d503201f 	nop
 110131c:	d503201f 	nop
 1101320:	d503201f 	nop
 1101324:	d503201f 	nop
 1101328:	d503201f 	nop
 110132c:	d503201f 	nop
 1101330:	d503201f 	nop
 1101334:	d503201f 	nop
 1101338:	d503201f 	nop
 110133c:	d503201f 	nop
 1101340:	d503201f 	nop
 1101344:	d503201f 	nop
 1101348:	d503201f 	nop
 110134c:	d503201f 	nop
 1101350:	d503201f 	nop
 1101354:	d503201f 	nop
 1101358:	d503201f 	nop
 110135c:	d503201f 	nop
 1101360:	d503201f 	nop
 1101364:	d503201f 	nop
 1101368:	d503201f 	nop
 110136c:	d503201f 	nop
 1101370:	d503201f 	nop
 1101374:	d503201f 	nop
 1101378:	d503201f 	nop
 110137c:	d503201f 	nop

0000000001101380 <SErrorSPx>:
	check_vector_size FiqSPx

	.align	7
SErrorSPx:
	b	SErrorSPx
 1101380:	14000000 	b	1101380 <SErrorSPx>
 1101384:	d503201f 	nop
 1101388:	d503201f 	nop
 110138c:	d503201f 	nop
 1101390:	d503201f 	nop
 1101394:	d503201f 	nop
 1101398:	d503201f 	nop
 110139c:	d503201f 	nop
 11013a0:	d503201f 	nop
 11013a4:	d503201f 	nop
 11013a8:	d503201f 	nop
 11013ac:	d503201f 	nop
 11013b0:	d503201f 	nop
 11013b4:	d503201f 	nop
 11013b8:	d503201f 	nop
 11013bc:	d503201f 	nop
 11013c0:	d503201f 	nop
 11013c4:	d503201f 	nop
 11013c8:	d503201f 	nop
 11013cc:	d503201f 	nop
 11013d0:	d503201f 	nop
 11013d4:	d503201f 	nop
 11013d8:	d503201f 	nop
 11013dc:	d503201f 	nop
 11013e0:	d503201f 	nop
 11013e4:	d503201f 	nop
 11013e8:	d503201f 	nop
 11013ec:	d503201f 	nop
 11013f0:	d503201f 	nop
 11013f4:	d503201f 	nop
 11013f8:	d503201f 	nop
 11013fc:	d503201f 	nop

0000000001101400 <SynchronousExceptionA64>:
	 * Lower EL using AArch64 : 0x400 - 0x580
	 * -----------------------------------------------------
	 */
	.align	7
SynchronousExceptionA64:
	b	SynchronousExceptionA64
 1101400:	14000000 	b	1101400 <SynchronousExceptionA64>
 1101404:	d503201f 	nop
 1101408:	d503201f 	nop
 110140c:	d503201f 	nop
 1101410:	d503201f 	nop
 1101414:	d503201f 	nop
 1101418:	d503201f 	nop
 110141c:	d503201f 	nop
 1101420:	d503201f 	nop
 1101424:	d503201f 	nop
 1101428:	d503201f 	nop
 110142c:	d503201f 	nop
 1101430:	d503201f 	nop
 1101434:	d503201f 	nop
 1101438:	d503201f 	nop
 110143c:	d503201f 	nop
 1101440:	d503201f 	nop
 1101444:	d503201f 	nop
 1101448:	d503201f 	nop
 110144c:	d503201f 	nop
 1101450:	d503201f 	nop
 1101454:	d503201f 	nop
 1101458:	d503201f 	nop
 110145c:	d503201f 	nop
 1101460:	d503201f 	nop
 1101464:	d503201f 	nop
 1101468:	d503201f 	nop
 110146c:	d503201f 	nop
 1101470:	d503201f 	nop
 1101474:	d503201f 	nop
 1101478:	d503201f 	nop
 110147c:	d503201f 	nop

0000000001101480 <IrqA64>:
	check_vector_size SynchronousExceptionA64

	.align	7
IrqA64:
	b	IrqA64
 1101480:	14000000 	b	1101480 <IrqA64>
 1101484:	d503201f 	nop
 1101488:	d503201f 	nop
 110148c:	d503201f 	nop
 1101490:	d503201f 	nop
 1101494:	d503201f 	nop
 1101498:	d503201f 	nop
 110149c:	d503201f 	nop
 11014a0:	d503201f 	nop
 11014a4:	d503201f 	nop
 11014a8:	d503201f 	nop
 11014ac:	d503201f 	nop
 11014b0:	d503201f 	nop
 11014b4:	d503201f 	nop
 11014b8:	d503201f 	nop
 11014bc:	d503201f 	nop
 11014c0:	d503201f 	nop
 11014c4:	d503201f 	nop
 11014c8:	d503201f 	nop
 11014cc:	d503201f 	nop
 11014d0:	d503201f 	nop
 11014d4:	d503201f 	nop
 11014d8:	d503201f 	nop
 11014dc:	d503201f 	nop
 11014e0:	d503201f 	nop
 11014e4:	d503201f 	nop
 11014e8:	d503201f 	nop
 11014ec:	d503201f 	nop
 11014f0:	d503201f 	nop
 11014f4:	d503201f 	nop
 11014f8:	d503201f 	nop
 11014fc:	d503201f 	nop

0000000001101500 <FiqA64>:
	check_vector_size IrqA64

	.align	7
FiqA64:
	b	FiqA64
 1101500:	14000000 	b	1101500 <FiqA64>
 1101504:	d503201f 	nop
 1101508:	d503201f 	nop
 110150c:	d503201f 	nop
 1101510:	d503201f 	nop
 1101514:	d503201f 	nop
 1101518:	d503201f 	nop
 110151c:	d503201f 	nop
 1101520:	d503201f 	nop
 1101524:	d503201f 	nop
 1101528:	d503201f 	nop
 110152c:	d503201f 	nop
 1101530:	d503201f 	nop
 1101534:	d503201f 	nop
 1101538:	d503201f 	nop
 110153c:	d503201f 	nop
 1101540:	d503201f 	nop
 1101544:	d503201f 	nop
 1101548:	d503201f 	nop
 110154c:	d503201f 	nop
 1101550:	d503201f 	nop
 1101554:	d503201f 	nop
 1101558:	d503201f 	nop
 110155c:	d503201f 	nop
 1101560:	d503201f 	nop
 1101564:	d503201f 	nop
 1101568:	d503201f 	nop
 110156c:	d503201f 	nop
 1101570:	d503201f 	nop
 1101574:	d503201f 	nop
 1101578:	d503201f 	nop
 110157c:	d503201f 	nop

0000000001101580 <SErrorA64>:
	check_vector_size FiqA64

	.align	7
SErrorA64:
	b   	SErrorA64
 1101580:	14000000 	b	1101580 <SErrorA64>
 1101584:	d503201f 	nop
 1101588:	d503201f 	nop
 110158c:	d503201f 	nop
 1101590:	d503201f 	nop
 1101594:	d503201f 	nop
 1101598:	d503201f 	nop
 110159c:	d503201f 	nop
 11015a0:	d503201f 	nop
 11015a4:	d503201f 	nop
 11015a8:	d503201f 	nop
 11015ac:	d503201f 	nop
 11015b0:	d503201f 	nop
 11015b4:	d503201f 	nop
 11015b8:	d503201f 	nop
 11015bc:	d503201f 	nop
 11015c0:	d503201f 	nop
 11015c4:	d503201f 	nop
 11015c8:	d503201f 	nop
 11015cc:	d503201f 	nop
 11015d0:	d503201f 	nop
 11015d4:	d503201f 	nop
 11015d8:	d503201f 	nop
 11015dc:	d503201f 	nop
 11015e0:	d503201f 	nop
 11015e4:	d503201f 	nop
 11015e8:	d503201f 	nop
 11015ec:	d503201f 	nop
 11015f0:	d503201f 	nop
 11015f4:	d503201f 	nop
 11015f8:	d503201f 	nop
 11015fc:	d503201f 	nop

0000000001101600 <SynchronousExceptionA32>:
	 * Lower EL using AArch32 : 0x0 - 0x180
	 * -----------------------------------------------------
	 */
	.align	7
SynchronousExceptionA32:
	b	SynchronousExceptionA32
 1101600:	14000000 	b	1101600 <SynchronousExceptionA32>
 1101604:	d503201f 	nop
 1101608:	d503201f 	nop
 110160c:	d503201f 	nop
 1101610:	d503201f 	nop
 1101614:	d503201f 	nop
 1101618:	d503201f 	nop
 110161c:	d503201f 	nop
 1101620:	d503201f 	nop
 1101624:	d503201f 	nop
 1101628:	d503201f 	nop
 110162c:	d503201f 	nop
 1101630:	d503201f 	nop
 1101634:	d503201f 	nop
 1101638:	d503201f 	nop
 110163c:	d503201f 	nop
 1101640:	d503201f 	nop
 1101644:	d503201f 	nop
 1101648:	d503201f 	nop
 110164c:	d503201f 	nop
 1101650:	d503201f 	nop
 1101654:	d503201f 	nop
 1101658:	d503201f 	nop
 110165c:	d503201f 	nop
 1101660:	d503201f 	nop
 1101664:	d503201f 	nop
 1101668:	d503201f 	nop
 110166c:	d503201f 	nop
 1101670:	d503201f 	nop
 1101674:	d503201f 	nop
 1101678:	d503201f 	nop
 110167c:	d503201f 	nop

0000000001101680 <IrqA32>:
	check_vector_size SynchronousExceptionA32

	.align	7
IrqA32:
	b	IrqA32
 1101680:	14000000 	b	1101680 <IrqA32>
 1101684:	d503201f 	nop
 1101688:	d503201f 	nop
 110168c:	d503201f 	nop
 1101690:	d503201f 	nop
 1101694:	d503201f 	nop
 1101698:	d503201f 	nop
 110169c:	d503201f 	nop
 11016a0:	d503201f 	nop
 11016a4:	d503201f 	nop
 11016a8:	d503201f 	nop
 11016ac:	d503201f 	nop
 11016b0:	d503201f 	nop
 11016b4:	d503201f 	nop
 11016b8:	d503201f 	nop
 11016bc:	d503201f 	nop
 11016c0:	d503201f 	nop
 11016c4:	d503201f 	nop
 11016c8:	d503201f 	nop
 11016cc:	d503201f 	nop
 11016d0:	d503201f 	nop
 11016d4:	d503201f 	nop
 11016d8:	d503201f 	nop
 11016dc:	d503201f 	nop
 11016e0:	d503201f 	nop
 11016e4:	d503201f 	nop
 11016e8:	d503201f 	nop
 11016ec:	d503201f 	nop
 11016f0:	d503201f 	nop
 11016f4:	d503201f 	nop
 11016f8:	d503201f 	nop
 11016fc:	d503201f 	nop

0000000001101700 <FiqA32>:
	check_vector_size IrqA32

	.align	7
FiqA32:
	b	FiqA32
 1101700:	14000000 	b	1101700 <FiqA32>
 1101704:	d503201f 	nop
 1101708:	d503201f 	nop
 110170c:	d503201f 	nop
 1101710:	d503201f 	nop
 1101714:	d503201f 	nop
 1101718:	d503201f 	nop
 110171c:	d503201f 	nop
 1101720:	d503201f 	nop
 1101724:	d503201f 	nop
 1101728:	d503201f 	nop
 110172c:	d503201f 	nop
 1101730:	d503201f 	nop
 1101734:	d503201f 	nop
 1101738:	d503201f 	nop
 110173c:	d503201f 	nop
 1101740:	d503201f 	nop
 1101744:	d503201f 	nop
 1101748:	d503201f 	nop
 110174c:	d503201f 	nop
 1101750:	d503201f 	nop
 1101754:	d503201f 	nop
 1101758:	d503201f 	nop
 110175c:	d503201f 	nop
 1101760:	d503201f 	nop
 1101764:	d503201f 	nop
 1101768:	d503201f 	nop
 110176c:	d503201f 	nop
 1101770:	d503201f 	nop
 1101774:	d503201f 	nop
 1101778:	d503201f 	nop
 110177c:	d503201f 	nop

0000000001101780 <SErrorA32>:
	check_vector_size FiqA32

	.align	7
SErrorA32:
	b	SErrorA32
 1101780:	14000000 	b	1101780 <SErrorA32>
 1101784:	00000000 	.inst	0x00000000 ; undefined

0000000001101788 <stack_tmp_export>:
 1101788:	01190ab0 00000000                       ........

0000000001101790 <vector_std_smc_entry>:
1111:
#endif
	.endm

LOCAL_FUNC vector_std_smc_entry , : , .identity_map
	readjust_pc
 1101790:	58000a10 	ldr	x16, 11018d0 <thread_vector_table+0x24>
 1101794:	d61f0200 	br	x16
	bl	thread_handle_std_smc
 1101798:	940014ff 	bl	1106b94 <thread_handle_std_smc>
	 * Normally thread_handle_std_smc() should return via
	 * thread_exit(), thread_rpc(), but if thread_handle_std_smc()
	 * hasn't switched stack (error detected) it will do a normal "C"
	 * return.
	 */
	mov	w1, w0
 110179c:	2a0003e1 	mov	w1, w0
	ldr	x0, =TEESMC_OPTEED_RETURN_CALL_DONE
 11017a0:	580009c0 	ldr	x0, 11018d8 <thread_vector_table+0x2c>
	smc	#0
 11017a4:	d4000003 	smc	#0x0
	b	.	/* SMC should not return */
 11017a8:	14000000 	b	11017a8 <vector_std_smc_entry+0x18>

00000000011017ac <vector_fast_smc_entry>:
END_FUNC vector_std_smc_entry

LOCAL_FUNC vector_fast_smc_entry , : , .identity_map
	readjust_pc
 11017ac:	580009b0 	ldr	x16, 11018e0 <thread_vector_table+0x34>
 11017b0:	d61f0200 	br	x16
	sub	sp, sp, #THREAD_SMC_ARGS_SIZE
 11017b4:	d10103ff 	sub	sp, sp, #0x40
	store_xregs sp, THREAD_SMC_ARGS_X0, 0, 7
 11017b8:	a90007e0 	stp	x0, x1, [sp]
 11017bc:	a9010fe2 	stp	x2, x3, [sp, #16]
 11017c0:	a90217e4 	stp	x4, x5, [sp, #32]
 11017c4:	a9031fe6 	stp	x6, x7, [sp, #48]
	mov	x0, sp
 11017c8:	910003e0 	mov	x0, sp
	bl	thread_handle_fast_smc
 11017cc:	940014dc 	bl	1106b3c <thread_handle_fast_smc>
	load_xregs sp, THREAD_SMC_ARGS_X0, 1, 8
 11017d0:	a9400be1 	ldp	x1, x2, [sp]
 11017d4:	a94113e3 	ldp	x3, x4, [sp, #16]
 11017d8:	a9421be5 	ldp	x5, x6, [sp, #32]
 11017dc:	a94323e7 	ldp	x7, x8, [sp, #48]
	add	sp, sp, #THREAD_SMC_ARGS_SIZE
 11017e0:	910103ff 	add	sp, sp, #0x40
	ldr	x0, =TEESMC_OPTEED_RETURN_CALL_DONE
 11017e4:	580007a0 	ldr	x0, 11018d8 <thread_vector_table+0x2c>
	smc	#0
 11017e8:	d4000003 	smc	#0x0
	b	.	/* SMC should not return */
 11017ec:	14000000 	b	11017ec <vector_fast_smc_entry+0x40>

00000000011017f0 <vector_fiq_entry>:
END_FUNC vector_fast_smc_entry

LOCAL_FUNC vector_fiq_entry , : , .identity_map
	readjust_pc
 11017f0:	580007d0 	ldr	x16, 11018e8 <thread_vector_table+0x3c>
 11017f4:	d61f0200 	br	x16
	/* Secure Monitor received a FIQ and passed control to us. */
	bl	thread_check_canaries
 11017f8:	94000d0e 	bl	1104c30 <thread_check_canaries>
	bl	itr_core_handler
 11017fc:	94002e34 	bl	110d0cc <itr_core_handler>
	ldr	x0, =TEESMC_OPTEED_RETURN_FIQ_DONE
 1101800:	58000780 	ldr	x0, 11018f0 <thread_vector_table+0x44>
	smc	#0
 1101804:	d4000003 	smc	#0x0
	b	.	/* SMC should not return */
 1101808:	14000000 	b	1101808 <vector_fiq_entry+0x18>

000000000110180c <vector_cpu_on_entry>:
END_FUNC vector_fiq_entry

LOCAL_FUNC vector_cpu_on_entry , : , .identity_map
	bl	cpu_on_handler
 110180c:	94001a5a 	bl	1108174 <cpu_on_handler>
	mov	x1, x0
 1101810:	aa0003e1 	mov	x1, x0
	ldr	x0, =TEESMC_OPTEED_RETURN_ON_DONE
 1101814:	58000720 	ldr	x0, 11018f8 <thread_vector_table+0x4c>
	smc	#0
 1101818:	d4000003 	smc	#0x0
	b	.	/* SMC should not return */
 110181c:	14000000 	b	110181c <vector_cpu_on_entry+0x10>

0000000001101820 <vector_cpu_off_entry>:
END_FUNC vector_cpu_on_entry

LOCAL_FUNC vector_cpu_off_entry , : , .identity_map
	readjust_pc
 1101820:	58000710 	ldr	x16, 1101900 <thread_vector_table+0x54>
 1101824:	d61f0200 	br	x16
	bl	thread_cpu_off_handler
 1101828:	94000cd0 	bl	1104b68 <thread_cpu_off_handler>
	mov	x1, x0
 110182c:	aa0003e1 	mov	x1, x0
	ldr	x0, =TEESMC_OPTEED_RETURN_OFF_DONE
 1101830:	580006c0 	ldr	x0, 1101908 <thread_vector_table+0x5c>
	smc	#0
 1101834:	d4000003 	smc	#0x0
	b	.	/* SMC should not return */
 1101838:	14000000 	b	1101838 <vector_cpu_off_entry+0x18>

000000000110183c <vector_cpu_suspend_entry>:
END_FUNC vector_cpu_off_entry

LOCAL_FUNC vector_cpu_suspend_entry , : , .identity_map
	readjust_pc
 110183c:	580006b0 	ldr	x16, 1101910 <thread_vector_table+0x64>
 1101840:	d61f0200 	br	x16
	bl	thread_cpu_suspend_handler
 1101844:	94000cf5 	bl	1104c18 <thread_cpu_suspend_handler>
	mov	x1, x0
 1101848:	aa0003e1 	mov	x1, x0
	ldr	x0, =TEESMC_OPTEED_RETURN_SUSPEND_DONE
 110184c:	58000660 	ldr	x0, 1101918 <thread_vector_table+0x6c>
	smc	#0
 1101850:	d4000003 	smc	#0x0
	b	.	/* SMC should not return */
 1101854:	14000000 	b	1101854 <vector_cpu_suspend_entry+0x18>

0000000001101858 <vector_cpu_resume_entry>:
END_FUNC vector_cpu_suspend_entry

LOCAL_FUNC vector_cpu_resume_entry , : , .identity_map
	readjust_pc
 1101858:	58000650 	ldr	x16, 1101920 <thread_vector_table+0x74>
 110185c:	d61f0200 	br	x16
	bl	thread_cpu_resume_handler
 1101860:	94000cf0 	bl	1104c20 <thread_cpu_resume_handler>
	mov	x1, x0
 1101864:	aa0003e1 	mov	x1, x0
	ldr	x0, =TEESMC_OPTEED_RETURN_RESUME_DONE
 1101868:	58000600 	ldr	x0, 1101928 <thread_vector_table+0x7c>
	smc	#0
 110186c:	d4000003 	smc	#0x0
	b	.	/* SMC should not return */
 1101870:	14000000 	b	1101870 <vector_cpu_resume_entry+0x18>

0000000001101874 <vector_system_off_entry>:
END_FUNC vector_cpu_resume_entry

LOCAL_FUNC vector_system_off_entry , : , .identity_map
	readjust_pc
 1101874:	580005f0 	ldr	x16, 1101930 <thread_vector_table+0x84>
 1101878:	d61f0200 	br	x16
	bl	thread_system_off_handler
 110187c:	94000ceb 	bl	1104c28 <thread_system_off_handler>
	mov	x1, x0
 1101880:	aa0003e1 	mov	x1, x0
	ldr	x0, =TEESMC_OPTEED_RETURN_SYSTEM_OFF_DONE
 1101884:	580005a0 	ldr	x0, 1101938 <thread_vector_table+0x8c>
	smc	#0
 1101888:	d4000003 	smc	#0x0
	b	.	/* SMC should not return */
 110188c:	14000000 	b	110188c <vector_system_off_entry+0x18>

0000000001101890 <vector_system_reset_entry>:
END_FUNC vector_system_off_entry

LOCAL_FUNC vector_system_reset_entry , : , .identity_map
	readjust_pc
 1101890:	58000590 	ldr	x16, 1101940 <thread_vector_table+0x94>
 1101894:	d61f0200 	br	x16
	bl	thread_system_reset_handler
 1101898:	94000cde 	bl	1104c10 <thread_system_reset_handler>
	mov	x1, x0
 110189c:	aa0003e1 	mov	x1, x0
	ldr	x0, =TEESMC_OPTEED_RETURN_SYSTEM_RESET_DONE
 11018a0:	58000540 	ldr	x0, 1101948 <thread_vector_table+0x9c>
	smc	#0
 11018a4:	d4000003 	smc	#0x0
	b	.	/* SMC should not return */
 11018a8:	14000000 	b	11018a8 <vector_system_reset_entry+0x18>

00000000011018ac <thread_vector_table>:
 *
 * Note that ARM-TF depends on the layout of this vector table, any change
 * in layout has to be synced with ARM-TF.
 */
FUNC thread_vector_table , : , .identity_map
	b	vector_std_smc_entry
 11018ac:	17ffffb9 	b	1101790 <vector_std_smc_entry>
	b	vector_fast_smc_entry
 11018b0:	17ffffbf 	b	11017ac <vector_fast_smc_entry>
	b	vector_cpu_on_entry
 11018b4:	17ffffd6 	b	110180c <vector_cpu_on_entry>
	b	vector_cpu_off_entry
 11018b8:	17ffffda 	b	1101820 <vector_cpu_off_entry>
	b	vector_cpu_resume_entry
 11018bc:	17ffffe7 	b	1101858 <vector_cpu_resume_entry>
	b	vector_cpu_suspend_entry
 11018c0:	17ffffdf 	b	110183c <vector_cpu_suspend_entry>
	b	vector_fiq_entry
 11018c4:	17ffffcb 	b	11017f0 <vector_fiq_entry>
	b	vector_system_off_entry
 11018c8:	17ffffeb 	b	1101874 <vector_system_off_entry>
	b	vector_system_reset_entry
 11018cc:	17fffff1 	b	1101890 <vector_system_reset_entry>
 11018d0:	01101798 	.word	0x01101798
 11018d4:	00000000 	.word	0x00000000
 11018d8:	be000005 	.word	0xbe000005
 11018dc:	00000000 	.word	0x00000000
 11018e0:	011017b4 	.word	0x011017b4
 11018e4:	00000000 	.word	0x00000000
 11018e8:	011017f8 	.word	0x011017f8
 11018ec:	00000000 	.word	0x00000000
 11018f0:	be000006 	.word	0xbe000006
 11018f4:	00000000 	.word	0x00000000
 11018f8:	be000001 	.word	0xbe000001
 11018fc:	00000000 	.word	0x00000000
 1101900:	01101828 	.word	0x01101828
 1101904:	00000000 	.word	0x00000000
 1101908:	be000002 	.word	0xbe000002
 110190c:	00000000 	.word	0x00000000
 1101910:	01101844 	.word	0x01101844
 1101914:	00000000 	.word	0x00000000
 1101918:	be000003 	.word	0xbe000003
 110191c:	00000000 	.word	0x00000000
 1101920:	01101860 	.word	0x01101860
 1101924:	00000000 	.word	0x00000000
 1101928:	be000004 	.word	0xbe000004
 110192c:	00000000 	.word	0x00000000
 1101930:	0110187c 	.word	0x0110187c
 1101934:	00000000 	.word	0x00000000
 1101938:	be000007 	.word	0xbe000007
 110193c:	00000000 	.word	0x00000000
 1101940:	01101898 	.word	0x01101898
 1101944:	00000000 	.word	0x00000000
 1101948:	be000008 	.word	0xbe000008
 110194c:	00000000 	.word	0x00000000

0000000001101950 <stack_tmp_stride>:
 1101950:	00000840                                @...

0000000001101954 <__get_core_pos>:
#include <arm.h>
#include <platform_config.h>

/* size_t __get_core_pos(void); */
FUNC __get_core_pos , : , .identity_map
	mrs	x0, mpidr_el1
 1101954:	d53800a0 	mrs	x0, mpidr_el1
	b get_core_pos_mpidr
 1101958:	14000001 	b	110195c <get_core_pos_mpidr>

000000000110195c <get_core_pos_mpidr>:
	 * Using logical shift ensures AFF0 to be filled with zeroes.
	 * This part is necessary even if CFG_CORE_THREAD_SHIFT is 0 because
	 * MT bit can be set on single threaded systems where all the AFF0
	 * values are zeroes.
	 */
	tst	x0, #MPIDR_MT_MASK
 110195c:	f268001f 	tst	x0, #0x1000000
	lsl	x3, x0, #MPIDR_AFFINITY_BITS
 1101960:	d378dc03 	lsl	x3, x0, #8
	csel	x3, x3, x0, eq
 1101964:	9a800063 	csel	x3, x3, x0, eq  // eq = none
	 * At this point the MPIDR layout is always shifted so it looks
	 * as follows AFF2 -> cluster, AFF1 -> core, AFF0 -> thread
	 */
#if CFG_CORE_THREAD_SHIFT == 0
	/* Calculate CorePos = (ClusterId * (cores/cluster)) + CoreId */
	ubfx	x0, x3, #MPIDR_AFF1_SHIFT, #MPIDR_AFFINITY_BITS
 1101968:	d3483c60 	ubfx	x0, x3, #8, #8
	ubfx	x1, x3, #MPIDR_AFF2_SHIFT, #MPIDR_AFFINITY_BITS
 110196c:	d3505c61 	ubfx	x1, x3, #16, #8
	add	x0, x0, x1, LSL #(CFG_CORE_CLUSTER_SHIFT)
 1101970:	8b010800 	add	x0, x0, x1, lsl #2
	ubfx	x2, x3, #MPIDR_AFF2_SHIFT, #MPIDR_AFFINITY_BITS
	add	x1, x1, x2, LSL #(CFG_CORE_CLUSTER_SHIFT)
	add	x0, x0, x1, LSL #(CFG_CORE_THREAD_SHIFT)
#endif

	ret
 1101974:	d65f03c0 	ret

0000000001101978 <unhandled_cpu>:
	wfi
 1101978:	d503207f 	wfi
	b	unhandled_cpu
 110197c:	17ffffff 	b	1101978 <unhandled_cpu>

0000000001101980 <init>:
	assert(!mempool_default);
	mempool_default = p;
}

static int init(void **a)
{
 1101980:	a9be7bfd 	stp	x29, x30, [sp, #-32]!
	mbedtls_mpi *bn = mempool_alloc(mbedtls_mpi_mempool, sizeof(*bn));
 1101984:	d2800301 	mov	x1, #0x18                  	// #24
{
 1101988:	910003fd 	mov	x29, sp
 110198c:	a90153f3 	stp	x19, x20, [sp, #16]
 1101990:	aa0003f4 	mov	x20, x0
	mbedtls_mpi *bn = mempool_alloc(mbedtls_mpi_mempool, sizeof(*bn));
 1101994:	b00002c0 	adrp	x0, 115a000 <__scattered_array_1phys_mem_map+0x8>
 1101998:	f9424c00 	ldr	x0, [x0, #1176]
 110199c:	f9400000 	ldr	x0, [x0]
 11019a0:	94010d38 	bl	1144e80 <mempool_alloc>

	if (!bn)
 11019a4:	b4000100 	cbz	x0, 11019c4 <init+0x44>
 11019a8:	aa0003f3 	mov	x19, x0
		return CRYPT_MEM;

	mbedtls_mpi_init_mempool(bn);
 11019ac:	9400f97f 	bl	113ffa8 <mbedtls_mpi_init_mempool>
	*a = bn;
	return CRYPT_OK;
 11019b0:	52800000 	mov	w0, #0x0                   	// #0
	*a = bn;
 11019b4:	f9000293 	str	x19, [x20]
}
 11019b8:	a94153f3 	ldp	x19, x20, [sp, #16]
 11019bc:	a8c27bfd 	ldp	x29, x30, [sp], #32
 11019c0:	d65f03c0 	ret
		return CRYPT_MEM;
 11019c4:	528001a0 	mov	w0, #0xd                   	// #13
 11019c8:	17fffffc 	b	11019b8 <init+0x38>
	...

0000000001102000 <thread_excp_vect>:
	 * EL1 with SP0 : 0x0 - 0x180
	 * -----------------------------------------------------
	 */
	.balign	128, INV_INSN
el1_sync_sp0:
	store_xregs sp, THREAD_CORE_LOCAL_X0, 0, 3
 1102000:	a90007e0 	stp	x0, x1, [sp]
 1102004:	a9010fe2 	stp	x2, x3, [sp, #16]
	b	el1_sync_abort
 1102008:	14000a20 	b	1104888 <el1_sync_abort>
	...

0000000001102080 <el1_irq_sp0>:
	check_vector_size el1_sync_sp0

	.balign	128, INV_INSN
el1_irq_sp0:
	store_xregs sp, THREAD_CORE_LOCAL_X0, 0, 3
 1102080:	a90007e0 	stp	x0, x1, [sp]
 1102084:	a9010fe2 	stp	x2, x3, [sp, #16]
	b	elx_irq
 1102088:	14000480 	b	1103288 <elx_irq>
	...

0000000001102100 <el1_fiq_sp0>:
	check_vector_size el1_irq_sp0

	.balign	128, INV_INSN
el1_fiq_sp0:
	store_xregs sp, THREAD_CORE_LOCAL_X0, 0, 3
 1102100:	a90007e0 	stp	x0, x1, [sp]
 1102104:	a9010fe2 	stp	x2, x3, [sp, #16]
	b	elx_fiq
 1102108:	14000a6b 	b	1104ab4 <elx_fiq>
	...

0000000001102180 <el1_serror_sp0>:
	check_vector_size el1_fiq_sp0

	.balign	128, INV_INSN
el1_serror_sp0:
	b	el1_serror_sp0
 1102180:	14000000 	b	1102180 <el1_serror_sp0>
	...

0000000001102200 <el1_sync_sp1>:
	 * Current EL with SP1: 0x200 - 0x380
	 * -----------------------------------------------------
	 */
	.balign	128, INV_INSN
el1_sync_sp1:
	b	el1_sync_sp1
 1102200:	14000000 	b	1102200 <el1_sync_sp1>
	...

0000000001102280 <el1_irq_sp1>:
	check_vector_size el1_sync_sp1

	.balign	128, INV_INSN
el1_irq_sp1:
	b	el1_irq_sp1
 1102280:	14000000 	b	1102280 <el1_irq_sp1>
	...

0000000001102300 <el1_fiq_sp1>:
	check_vector_size el1_irq_sp1

	.balign	128, INV_INSN
el1_fiq_sp1:
	b	el1_fiq_sp1
 1102300:	14000000 	b	1102300 <el1_fiq_sp1>
	...

0000000001102380 <el1_serror_sp1>:
	check_vector_size el1_fiq_sp1

	.balign	128, INV_INSN
el1_serror_sp1:
	b	el1_serror_sp1
 1102380:	14000000 	b	1102380 <el1_serror_sp1>
	...

0000000001102400 <el0_sync_a64>:
	 * Lower EL using AArch64 : 0x400 - 0x580
	 * -----------------------------------------------------
	 */
	.balign	128, INV_INSN
el0_sync_a64:
	restore_mapping
 1102400:	d518d080 	msr	tpidr_el1, x0
 1102404:	d51bd061 	msr	tpidrro_el0, x1
 1102408:	d5382000 	mrs	x0, ttbr0_el1
 110240c:	d1020000 	sub	x0, x0, #0x80
 1102410:	924ff800 	and	x0, x0, #0xfffeffffffffffff
 1102414:	d5182000 	msr	ttbr0_el1, x0
 1102418:	d5033fdf 	isb
 110241c:	58006360 	ldr	x0, 1103088 <icache_inv_user_range+0x98>
 1102420:	d61f0000 	br	x0
 1102424:	f0000320 	adrp	x0, 1169000 <threads+0x540>
 1102428:	91274000 	add	x0, x0, #0x9d0
 110242c:	f9400000 	ldr	x0, [x0]
 1102430:	d538c001 	mrs	x1, vbar_el1
 1102434:	8b000021 	add	x1, x1, x0
 1102438:	d518c001 	msr	vbar_el1, x1
 110243c:	d5033fdf 	isb
 1102440:	f0000320 	adrp	x0, 1169000 <threads+0x540>
 1102444:	91230000 	add	x0, x0, #0x8c0
 1102448:	f9400000 	ldr	x0, [x0]
 110244c:	8b2063ff 	add	sp, sp, x0
 1102450:	d538d080 	mrs	x0, tpidr_el1
 1102454:	d53bd061 	mrs	x1, tpidrro_el0
 1102458:	a90007e0 	stp	x0, x1, [sp]
 110245c:	a9010fe2 	stp	x2, x3, [sp, #16]

	mrs	x2, esr_el1
 1102460:	d5385202 	mrs	x2, esr_el1
	mrs	x3, sp_el0
 1102464:	d5384103 	mrs	x3, sp_el0
	lsr	x2, x2, #ESR_EC_SHIFT
 1102468:	d35afc42 	lsr	x2, x2, #26
	cmp	x2, #ESR_EC_AARCH64_SVC
 110246c:	f100545f 	cmp	x2, #0x15
	b.eq	el0_svc
 1102470:	54006840 	b.eq	1103178 <el0_svc>  // b.none
	b	el0_sync_abort
 1102474:	1400094b 	b	11049a0 <el0_sync_abort>
	...

0000000001102480 <el0_irq_a64>:
	check_vector_size el0_sync_a64

	.balign	128, INV_INSN
el0_irq_a64:
	restore_mapping
 1102480:	d518d080 	msr	tpidr_el1, x0
 1102484:	d51bd061 	msr	tpidrro_el0, x1
 1102488:	d5382000 	mrs	x0, ttbr0_el1
 110248c:	d1020000 	sub	x0, x0, #0x80
 1102490:	924ff800 	and	x0, x0, #0xfffeffffffffffff
 1102494:	d5182000 	msr	ttbr0_el1, x0
 1102498:	d5033fdf 	isb
 110249c:	58005fa0 	ldr	x0, 1103090 <icache_inv_user_range+0xa0>
 11024a0:	d61f0000 	br	x0
 11024a4:	f0000320 	adrp	x0, 1169000 <threads+0x540>
 11024a8:	91274000 	add	x0, x0, #0x9d0
 11024ac:	f9400000 	ldr	x0, [x0]
 11024b0:	d538c001 	mrs	x1, vbar_el1
 11024b4:	8b000021 	add	x1, x1, x0
 11024b8:	d518c001 	msr	vbar_el1, x1
 11024bc:	d5033fdf 	isb
 11024c0:	f0000320 	adrp	x0, 1169000 <threads+0x540>
 11024c4:	91230000 	add	x0, x0, #0x8c0
 11024c8:	f9400000 	ldr	x0, [x0]
 11024cc:	8b2063ff 	add	sp, sp, x0
 11024d0:	d538d080 	mrs	x0, tpidr_el1
 11024d4:	d53bd061 	mrs	x1, tpidrro_el0
 11024d8:	a90007e0 	stp	x0, x1, [sp]
 11024dc:	a9010fe2 	stp	x2, x3, [sp, #16]

	b	elx_irq
 11024e0:	1400036a 	b	1103288 <elx_irq>
	...

0000000001102500 <el0_fiq_a64>:
	check_vector_size el0_irq_a64

	.balign	128, INV_INSN
el0_fiq_a64:
	restore_mapping
 1102500:	d518d080 	msr	tpidr_el1, x0
 1102504:	d51bd061 	msr	tpidrro_el0, x1
 1102508:	d5382000 	mrs	x0, ttbr0_el1
 110250c:	d1020000 	sub	x0, x0, #0x80
 1102510:	924ff800 	and	x0, x0, #0xfffeffffffffffff
 1102514:	d5182000 	msr	ttbr0_el1, x0
 1102518:	d5033fdf 	isb
 110251c:	58005be0 	ldr	x0, 1103098 <icache_inv_user_range+0xa8>
 1102520:	d61f0000 	br	x0
 1102524:	f0000320 	adrp	x0, 1169000 <threads+0x540>
 1102528:	91274000 	add	x0, x0, #0x9d0
 110252c:	f9400000 	ldr	x0, [x0]
 1102530:	d538c001 	mrs	x1, vbar_el1
 1102534:	8b000021 	add	x1, x1, x0
 1102538:	d518c001 	msr	vbar_el1, x1
 110253c:	d5033fdf 	isb
 1102540:	f0000320 	adrp	x0, 1169000 <threads+0x540>
 1102544:	91230000 	add	x0, x0, #0x8c0
 1102548:	f9400000 	ldr	x0, [x0]
 110254c:	8b2063ff 	add	sp, sp, x0
 1102550:	d538d080 	mrs	x0, tpidr_el1
 1102554:	d53bd061 	mrs	x1, tpidrro_el0
 1102558:	a90007e0 	stp	x0, x1, [sp]
 110255c:	a9010fe2 	stp	x2, x3, [sp, #16]

	b	elx_fiq
 1102560:	14000955 	b	1104ab4 <elx_fiq>
	...

0000000001102580 <el0_serror_a64>:
	check_vector_size el0_fiq_a64

	.balign	128, INV_INSN
el0_serror_a64:
	b   	el0_serror_a64
 1102580:	14000000 	b	1102580 <el0_serror_a64>
	...

0000000001102600 <el0_sync_a32>:
	 * Lower EL using AArch32 : 0x0 - 0x180
	 * -----------------------------------------------------
	 */
	.balign	128, INV_INSN
el0_sync_a32:
	restore_mapping
 1102600:	d518d080 	msr	tpidr_el1, x0
 1102604:	d51bd061 	msr	tpidrro_el0, x1
 1102608:	d5382000 	mrs	x0, ttbr0_el1
 110260c:	d1020000 	sub	x0, x0, #0x80
 1102610:	924ff800 	and	x0, x0, #0xfffeffffffffffff
 1102614:	d5182000 	msr	ttbr0_el1, x0
 1102618:	d5033fdf 	isb
 110261c:	58005420 	ldr	x0, 11030a0 <icache_inv_user_range+0xb0>
 1102620:	d61f0000 	br	x0
 1102624:	f0000320 	adrp	x0, 1169000 <threads+0x540>
 1102628:	91274000 	add	x0, x0, #0x9d0
 110262c:	f9400000 	ldr	x0, [x0]
 1102630:	d538c001 	mrs	x1, vbar_el1
 1102634:	8b000021 	add	x1, x1, x0
 1102638:	d518c001 	msr	vbar_el1, x1
 110263c:	d5033fdf 	isb
 1102640:	f0000320 	adrp	x0, 1169000 <threads+0x540>
 1102644:	91230000 	add	x0, x0, #0x8c0
 1102648:	f9400000 	ldr	x0, [x0]
 110264c:	8b2063ff 	add	sp, sp, x0
 1102650:	d538d080 	mrs	x0, tpidr_el1
 1102654:	d53bd061 	mrs	x1, tpidrro_el0
 1102658:	a90007e0 	stp	x0, x1, [sp]
 110265c:	a9010fe2 	stp	x2, x3, [sp, #16]

	mrs	x2, esr_el1
 1102660:	d5385202 	mrs	x2, esr_el1
	mrs	x3, sp_el0
 1102664:	d5384103 	mrs	x3, sp_el0
	lsr	x2, x2, #ESR_EC_SHIFT
 1102668:	d35afc42 	lsr	x2, x2, #26
	cmp	x2, #ESR_EC_AARCH32_SVC
 110266c:	f100445f 	cmp	x2, #0x11
	b.eq	el0_svc
 1102670:	54005840 	b.eq	1103178 <el0_svc>  // b.none
	b	el0_sync_abort
 1102674:	140008cb 	b	11049a0 <el0_sync_abort>
	...

0000000001102680 <el0_irq_a32>:
	check_vector_size el0_sync_a32

	.balign	128, INV_INSN
el0_irq_a32:
	restore_mapping
 1102680:	d518d080 	msr	tpidr_el1, x0
 1102684:	d51bd061 	msr	tpidrro_el0, x1
 1102688:	d5382000 	mrs	x0, ttbr0_el1
 110268c:	d1020000 	sub	x0, x0, #0x80
 1102690:	924ff800 	and	x0, x0, #0xfffeffffffffffff
 1102694:	d5182000 	msr	ttbr0_el1, x0
 1102698:	d5033fdf 	isb
 110269c:	58005060 	ldr	x0, 11030a8 <icache_inv_user_range+0xb8>
 11026a0:	d61f0000 	br	x0
 11026a4:	f0000320 	adrp	x0, 1169000 <threads+0x540>
 11026a8:	91274000 	add	x0, x0, #0x9d0
 11026ac:	f9400000 	ldr	x0, [x0]
 11026b0:	d538c001 	mrs	x1, vbar_el1
 11026b4:	8b000021 	add	x1, x1, x0
 11026b8:	d518c001 	msr	vbar_el1, x1
 11026bc:	d5033fdf 	isb
 11026c0:	f0000320 	adrp	x0, 1169000 <threads+0x540>
 11026c4:	91230000 	add	x0, x0, #0x8c0
 11026c8:	f9400000 	ldr	x0, [x0]
 11026cc:	8b2063ff 	add	sp, sp, x0
 11026d0:	d538d080 	mrs	x0, tpidr_el1
 11026d4:	d53bd061 	mrs	x1, tpidrro_el0
 11026d8:	a90007e0 	stp	x0, x1, [sp]
 11026dc:	a9010fe2 	stp	x2, x3, [sp, #16]

	b	elx_irq
 11026e0:	140002ea 	b	1103288 <elx_irq>
	...

0000000001102700 <el0_fiq_a32>:
	check_vector_size el0_irq_a32

	.balign	128, INV_INSN
el0_fiq_a32:
	restore_mapping
 1102700:	d518d080 	msr	tpidr_el1, x0
 1102704:	d51bd061 	msr	tpidrro_el0, x1
 1102708:	d5382000 	mrs	x0, ttbr0_el1
 110270c:	d1020000 	sub	x0, x0, #0x80
 1102710:	924ff800 	and	x0, x0, #0xfffeffffffffffff
 1102714:	d5182000 	msr	ttbr0_el1, x0
 1102718:	d5033fdf 	isb
 110271c:	58004ca0 	ldr	x0, 11030b0 <icache_inv_user_range+0xc0>
 1102720:	d61f0000 	br	x0
 1102724:	f0000320 	adrp	x0, 1169000 <threads+0x540>
 1102728:	91274000 	add	x0, x0, #0x9d0
 110272c:	f9400000 	ldr	x0, [x0]
 1102730:	d538c001 	mrs	x1, vbar_el1
 1102734:	8b000021 	add	x1, x1, x0
 1102738:	d518c001 	msr	vbar_el1, x1
 110273c:	d5033fdf 	isb
 1102740:	f0000320 	adrp	x0, 1169000 <threads+0x540>
 1102744:	91230000 	add	x0, x0, #0x8c0
 1102748:	f9400000 	ldr	x0, [x0]
 110274c:	8b2063ff 	add	sp, sp, x0
 1102750:	d538d080 	mrs	x0, tpidr_el1
 1102754:	d53bd061 	mrs	x1, tpidrro_el0
 1102758:	a90007e0 	stp	x0, x1, [sp]
 110275c:	a9010fe2 	stp	x2, x3, [sp, #16]

	b	elx_fiq
 1102760:	140008d5 	b	1104ab4 <elx_fiq>
	...

0000000001102780 <el0_serror_a32>:
	check_vector_size el0_fiq_a32

	.balign	128, INV_INSN
el0_serror_a32:
	b	el0_serror_a32
 1102780:	14000000 	b	1102780 <el0_serror_a32>
	...

0000000001102800 <thread_excp_vect_workaround>:
	 * EL1 with SP0 : 0x0 - 0x180
	 * -----------------------------------------------------
	 */
	.balign	128, INV_INSN
workaround_el1_sync_sp0:
	b	el1_sync_sp0
 1102800:	17fffe00 	b	1102000 <thread_excp_vect>
	...

0000000001102880 <workaround_el1_irq_sp0>:
	check_vector_size workaround_el1_sync_sp0

	.balign	128, INV_INSN
workaround_el1_irq_sp0:
	b	el1_irq_sp0
 1102880:	17fffe00 	b	1102080 <el1_irq_sp0>
	...

0000000001102900 <workaround_el1_fiq_sp0>:
	check_vector_size workaround_el1_irq_sp0

	.balign	128, INV_INSN
workaround_el1_fiq_sp0:
	b	el1_fiq_sp0
 1102900:	17fffe00 	b	1102100 <el1_fiq_sp0>
	...

0000000001102980 <workaround_el1_serror_sp0>:
	check_vector_size workaround_el1_fiq_sp0

	.balign	128, INV_INSN
workaround_el1_serror_sp0:
	b	el1_serror_sp0
 1102980:	17fffe00 	b	1102180 <el1_serror_sp0>
	...

0000000001102a00 <workaround_el1_sync_sp1>:
	 * Current EL with SP1: 0x200 - 0x380
	 * -----------------------------------------------------
	 */
	.balign	128, INV_INSN
workaround_el1_sync_sp1:
	b	workaround_el1_sync_sp1
 1102a00:	14000000 	b	1102a00 <workaround_el1_sync_sp1>
	...

0000000001102a80 <workaround_el1_irq_sp1>:
	check_vector_size workaround_el1_sync_sp1

	.balign	128, INV_INSN
workaround_el1_irq_sp1:
	b	workaround_el1_irq_sp1
 1102a80:	14000000 	b	1102a80 <workaround_el1_irq_sp1>
	...

0000000001102b00 <workaround_el1_fiq_sp1>:
	check_vector_size workaround_el1_irq_sp1

	.balign	128, INV_INSN
workaround_el1_fiq_sp1:
	b	workaround_el1_fiq_sp1
 1102b00:	14000000 	b	1102b00 <workaround_el1_fiq_sp1>
	...

0000000001102b80 <workaround_el1_serror_sp1>:
	check_vector_size workaround_el1_fiq_sp1

	.balign	128, INV_INSN
workaround_el1_serror_sp1:
	b	workaround_el1_serror_sp1
 1102b80:	14000000 	b	1102b80 <workaround_el1_serror_sp1>
	...

0000000001102c00 <workaround_el0_sync_a64>:
	 * Lower EL using AArch64 : 0x400 - 0x580
	 * -----------------------------------------------------
	 */
	.balign	128, INV_INSN
workaround_el0_sync_a64:
	invalidate_branch_predictor
 1102c00:	a90007e0 	stp	x0, x1, [sp]
 1102c04:	a9010fe2 	stp	x2, x3, [sp, #16]
 1102c08:	d2c00000 	movz	x0, #0x0, lsl #32
 1102c0c:	f2b00000 	movk	x0, #0x8000, lsl #16
 1102c10:	f2900000 	movk	x0, #0x8000
 1102c14:	d4000003 	smc	#0x0
 1102c18:	a94007e0 	ldp	x0, x1, [sp]
 1102c1c:	a9410fe2 	ldp	x2, x3, [sp, #16]
	b	el0_sync_a64
 1102c20:	17fffdf8 	b	1102400 <el0_sync_a64>
	...

0000000001102c80 <workaround_el0_irq_a64>:
	check_vector_size workaround_el0_sync_a64

	.balign	128, INV_INSN
workaround_el0_irq_a64:
	invalidate_branch_predictor
 1102c80:	a90007e0 	stp	x0, x1, [sp]
 1102c84:	a9010fe2 	stp	x2, x3, [sp, #16]
 1102c88:	d2c00000 	movz	x0, #0x0, lsl #32
 1102c8c:	f2b00000 	movk	x0, #0x8000, lsl #16
 1102c90:	f2900000 	movk	x0, #0x8000
 1102c94:	d4000003 	smc	#0x0
 1102c98:	a94007e0 	ldp	x0, x1, [sp]
 1102c9c:	a9410fe2 	ldp	x2, x3, [sp, #16]
	b	el0_irq_a64
 1102ca0:	17fffdf8 	b	1102480 <el0_irq_a64>
	...

0000000001102d00 <workaround_el0_fiq_a64>:
	check_vector_size workaround_el0_irq_a64

	.balign	128, INV_INSN
workaround_el0_fiq_a64:
	invalidate_branch_predictor
 1102d00:	a90007e0 	stp	x0, x1, [sp]
 1102d04:	a9010fe2 	stp	x2, x3, [sp, #16]
 1102d08:	d2c00000 	movz	x0, #0x0, lsl #32
 1102d0c:	f2b00000 	movk	x0, #0x8000, lsl #16
 1102d10:	f2900000 	movk	x0, #0x8000
 1102d14:	d4000003 	smc	#0x0
 1102d18:	a94007e0 	ldp	x0, x1, [sp]
 1102d1c:	a9410fe2 	ldp	x2, x3, [sp, #16]
	b	el0_fiq_a64
 1102d20:	17fffdf8 	b	1102500 <el0_fiq_a64>
	...

0000000001102d80 <workaround_el0_serror_a64>:
	check_vector_size workaround_el0_fiq_a64

	.balign	128, INV_INSN
workaround_el0_serror_a64:
	b   	workaround_el0_serror_a64
 1102d80:	14000000 	b	1102d80 <workaround_el0_serror_a64>
	...

0000000001102e00 <workaround_el0_sync_a32>:
	 * Lower EL using AArch32 : 0x0 - 0x180
	 * -----------------------------------------------------
	 */
	.balign	128, INV_INSN
workaround_el0_sync_a32:
	invalidate_branch_predictor
 1102e00:	a90007e0 	stp	x0, x1, [sp]
 1102e04:	a9010fe2 	stp	x2, x3, [sp, #16]
 1102e08:	d2c00000 	movz	x0, #0x0, lsl #32
 1102e0c:	f2b00000 	movk	x0, #0x8000, lsl #16
 1102e10:	f2900000 	movk	x0, #0x8000
 1102e14:	d4000003 	smc	#0x0
 1102e18:	a94007e0 	ldp	x0, x1, [sp]
 1102e1c:	a9410fe2 	ldp	x2, x3, [sp, #16]
	b	el0_sync_a32
 1102e20:	17fffdf8 	b	1102600 <el0_sync_a32>
	...

0000000001102e80 <workaround_el0_irq_a32>:
	check_vector_size workaround_el0_sync_a32

	.balign	128, INV_INSN
workaround_el0_irq_a32:
	invalidate_branch_predictor
 1102e80:	a90007e0 	stp	x0, x1, [sp]
 1102e84:	a9010fe2 	stp	x2, x3, [sp, #16]
 1102e88:	d2c00000 	movz	x0, #0x0, lsl #32
 1102e8c:	f2b00000 	movk	x0, #0x8000, lsl #16
 1102e90:	f2900000 	movk	x0, #0x8000
 1102e94:	d4000003 	smc	#0x0
 1102e98:	a94007e0 	ldp	x0, x1, [sp]
 1102e9c:	a9410fe2 	ldp	x2, x3, [sp, #16]
	b	el0_irq_a32
 1102ea0:	17fffdf8 	b	1102680 <el0_irq_a32>
	...

0000000001102f00 <workaround_el0_fiq_a32>:
	check_vector_size workaround_el0_irq_a32

	.balign	128, INV_INSN
workaround_el0_fiq_a32:
	invalidate_branch_predictor
 1102f00:	a90007e0 	stp	x0, x1, [sp]
 1102f04:	a9010fe2 	stp	x2, x3, [sp, #16]
 1102f08:	d2c00000 	movz	x0, #0x0, lsl #32
 1102f0c:	f2b00000 	movk	x0, #0x8000, lsl #16
 1102f10:	f2900000 	movk	x0, #0x8000
 1102f14:	d4000003 	smc	#0x0
 1102f18:	a94007e0 	ldp	x0, x1, [sp]
 1102f1c:	a9410fe2 	ldp	x2, x3, [sp, #16]
	b	el0_fiq_a32
 1102f20:	17fffdf8 	b	1102700 <el0_fiq_a32>
	...

0000000001102f80 <workaround_el0_serror_a32>:
	check_vector_size workaround_el0_fiq_a32

	.balign	128, INV_INSN
workaround_el0_serror_a32:
	b	workaround_el0_serror_a32
 1102f80:	14000000 	b	1102f80 <workaround_el0_serror_a32>

0000000001102f84 <eret_to_el0>:
 */
eret_to_el0:

#ifdef CFG_CORE_UNMAP_CORE_AT_EL0
	/* Point to the vector into the reduced mapping */
	adr_l	x0, thread_user_kcode_offset
 1102f84:	f0000320 	adrp	x0, 1169000 <threads+0x540>
 1102f88:	91274000 	add	x0, x0, #0x9d0
	ldr	x0, [x0]
 1102f8c:	f9400000 	ldr	x0, [x0]
	mrs	x1, vbar_el1
 1102f90:	d538c001 	mrs	x1, vbar_el1
	sub	x1, x1, x0
 1102f94:	cb000021 	sub	x1, x1, x0
	msr	vbar_el1, x1
 1102f98:	d518c001 	msr	vbar_el1, x1
	isb
 1102f9c:	d5033fdf 	isb

#ifdef CFG_CORE_WORKAROUND_SPECTRE_BP_SEC
	/* Store the SP offset in tpidr_el1 to be used below to update SP */
	adr_l	x1, thread_user_kdata_sp_offset
 1102fa0:	f0000321 	adrp	x1, 1169000 <threads+0x540>
 1102fa4:	91230021 	add	x1, x1, #0x8c0
	ldr	x1, [x1]
 1102fa8:	f9400021 	ldr	x1, [x1]
	msr	tpidr_el1, x1
 1102fac:	d518d081 	msr	tpidr_el1, x1
#endif

	/* Jump into the reduced mapping and continue execution */
	ldr	x1, =1f
 1102fb0:	58000841 	ldr	x1, 11030b8 <icache_inv_user_range+0xc8>
	sub	x1, x1, x0
 1102fb4:	cb000021 	sub	x1, x1, x0
	br	x1
 1102fb8:	d61f0020 	br	x1
1:

	load_xregs sp, THREAD_CORE_LOCAL_X0, 0, 1
 1102fbc:	a94007e0 	ldp	x0, x1, [sp]
	msr	tpidrro_el0, x0
 1102fc0:	d51bd060 	msr	tpidrro_el0, x0

	/* Update the mapping to exclude the full kernel mapping */
	mrs	x0, ttbr0_el1
 1102fc4:	d5382000 	mrs	x0, ttbr0_el1
	add	x0, x0, #CORE_MMU_L1_TBL_OFFSET
 1102fc8:	91020000 	add	x0, x0, #0x80
	orr	x0, x0, #BIT(TTBR_ASID_SHIFT) /* switch to user mode ASID */
 1102fcc:	b2500000 	orr	x0, x0, #0x1000000000000
	msr	ttbr0_el1, x0
 1102fd0:	d5182000 	msr	ttbr0_el1, x0
	isb
 1102fd4:	d5033fdf 	isb
#ifdef CFG_CORE_WORKAROUND_SPECTRE_BP_SEC
	/*
	 * Update the SP with thread_user_kdata_sp_offset as described in
	 * init_user_kcode().
	 */
	mrs	x0, tpidr_el1
 1102fd8:	d538d080 	mrs	x0, tpidr_el1
	sub	sp, sp, x0
 1102fdc:	cb2063ff 	sub	sp, sp, x0
#endif

	mrs	x0, tpidrro_el0
 1102fe0:	d53bd060 	mrs	x0, tpidrro_el0
	msr	ttbr0_el1, x0
	isb
	load_xregs sp, THREAD_CORE_LOCAL_X0, 0, 1
#endif /*CFG_CORE_UNMAP_CORE_AT_EL0*/

	return_from_exception
 1102fe4:	d69f03e0 	eret
 1102fe8:	d503379f 	dsb	nsh
 1102fec:	d5033fdf 	isb

0000000001102ff0 <icache_inv_user_range>:
	 */
	.global icache_inv_user_range
	.type icache_inv_user_range , %function
icache_inv_user_range:
	/* Mask all exceptions */
	mrs	x6, daif	/* this register must be preserved */
 1102ff0:	d53b4226 	mrs	x6, daif
	msr	daifset, #DAIFBIT_ALL
 1102ff4:	d5034fdf 	msr	daifset, #0xf

#ifdef CFG_CORE_UNMAP_CORE_AT_EL0
	/* Point to the vector into the reduced mapping */
	adr_l	x2, thread_user_kcode_offset
 1102ff8:	f0000322 	adrp	x2, 1169000 <threads+0x540>
 1102ffc:	91274042 	add	x2, x2, #0x9d0
	ldr	x2, [x2]
 1103000:	f9400042 	ldr	x2, [x2]
	mrs	x4, vbar_el1	/* this register must be preserved */
 1103004:	d538c004 	mrs	x4, vbar_el1
	sub	x3, x4, x2
 1103008:	cb020083 	sub	x3, x4, x2
	msr	vbar_el1, x3
 110300c:	d518c003 	msr	vbar_el1, x3
	isb
 1103010:	d5033fdf 	isb

	/* Jump into the reduced mapping and continue execution */
	ldr	x3, =1f
 1103014:	58000563 	ldr	x3, 11030c0 <icache_inv_user_range+0xd0>
	sub	x3, x3, x2
 1103018:	cb020063 	sub	x3, x3, x2
	br	x3
 110301c:	d61f0060 	br	x3
1:

	/* Update the mapping to exclude the full kernel mapping */
	mrs	x5, ttbr0_el1	/* this register must be preserved */
 1103020:	d5382005 	mrs	x5, ttbr0_el1
	add	x2, x5, #CORE_MMU_L1_TBL_OFFSET
 1103024:	910200a2 	add	x2, x5, #0x80
	orr	x2, x2, #BIT(TTBR_ASID_SHIFT) /* switch to user mode ASID */
 1103028:	b2500042 	orr	x2, x2, #0x1000000000000
	msr	ttbr0_el1, x2
 110302c:	d5182002 	msr	ttbr0_el1, x2
	isb
 1103030:	d5033fdf 	isb
	/*
	 * Do the actual icache invalidation
	 */

	/* Calculate minimum icache line size, result in x2 */
	mrs	x3, ctr_el0
 1103034:	d53b0023 	mrs	x3, ctr_el0
	and	x3, x3, #CTR_IMINLINE_MASK
 1103038:	92400c63 	and	x3, x3, #0xf
	mov	x2, #CTR_WORD_SIZE
 110303c:	d2800082 	mov	x2, #0x4                   	// #4
	lsl	x2, x2, x3
 1103040:	9ac32042 	lsl	x2, x2, x3

	add	x1, x0, x1
 1103044:	8b010001 	add	x1, x0, x1
	sub	x3, x2, #1
 1103048:	d1000443 	sub	x3, x2, #0x1
	bic	x0, x0, x3
 110304c:	8a230000 	bic	x0, x0, x3
1:
	ic	ivau, x0
 1103050:	d50b7520 	ic	ivau, x0
	add	x0, x0, x2
 1103054:	8b020000 	add	x0, x0, x2
	cmp	x0, x1
 1103058:	eb01001f 	cmp	x0, x1
	b.lo    1b
 110305c:	54ffffa3 	b.cc	1103050 <icache_inv_user_range+0x60>  // b.lo, b.ul, b.last
	dsb	ish
 1103060:	d5033b9f 	dsb	ish

#ifdef CFG_CORE_UNMAP_CORE_AT_EL0
	/* Update the mapping to use the full kernel mapping and ASID */
	msr	ttbr0_el1, x5
 1103064:	d5182005 	msr	ttbr0_el1, x5
	isb
 1103068:	d5033fdf 	isb

	/* Jump into the full mapping and continue execution */
	ldr	x0, =1f
 110306c:	580002e0 	ldr	x0, 11030c8 <icache_inv_user_range+0xd8>
	br	x0
 1103070:	d61f0000 	br	x0
1:

	/* Point to the vector into the full mapping */
	msr	vbar_el1, x4
 1103074:	d518c004 	msr	vbar_el1, x4
	isb
 1103078:	d5033fdf 	isb
	/* switch to kernel mode ASID */
	msr	ttbr0_el1, x5
	isb
#endif /*CFG_CORE_UNMAP_CORE_AT_EL0*/

	msr	daif, x6	/* restore exceptions */
 110307c:	d51b4226 	msr	daif, x6
	ret	/* End of icache_inv_user_range() */
 1103080:	d65f03c0 	ret
 1103084:	00000000 	.inst	0x00000000 ; undefined
 1103088:	01102424 	.word	0x01102424
 110308c:	00000000 	.word	0x00000000
 1103090:	011024a4 	.word	0x011024a4
 1103094:	00000000 	.word	0x00000000
 1103098:	01102524 	.word	0x01102524
 110309c:	00000000 	.word	0x00000000
 11030a0:	01102624 	.word	0x01102624
 11030a4:	00000000 	.word	0x00000000
 11030a8:	011026a4 	.word	0x011026a4
 11030ac:	00000000 	.word	0x00000000
 11030b0:	01102724 	.word	0x01102724
 11030b4:	00000000 	.word	0x00000000
 11030b8:	01102fbc 	.word	0x01102fbc
 11030bc:	00000000 	.word	0x00000000
 11030c0:	01103020 	.word	0x01103020
 11030c4:	00000000 	.word	0x00000000
 11030c8:	01103074 	.word	0x01103074
 11030cc:	00000000 	.word	0x00000000

00000000011030d0 <__thread_enter_user_mode>:
	sub	sp, sp, #THREAD_USER_MODE_REC_SIZE
 11030d0:	d10203ff 	sub	sp, sp, #0x80
	store_xregs sp, THREAD_USER_MODE_REC_CTX_REGS_PTR, 0, 2
 11030d4:	a90007e0 	stp	x0, x1, [sp]
 11030d8:	f9000be2 	str	x2, [sp, #16]
	store_xregs sp, THREAD_USER_MODE_REC_X19, 19, 30
 11030dc:	a90253f3 	stp	x19, x20, [sp, #32]
 11030e0:	a9035bf5 	stp	x21, x22, [sp, #48]
 11030e4:	a90463f7 	stp	x23, x24, [sp, #64]
 11030e8:	a9056bf9 	stp	x25, x26, [sp, #80]
 11030ec:	a90673fb 	stp	x27, x28, [sp, #96]
 11030f0:	a9077bfd 	stp	x29, x30, [sp, #112]
	mov	x19, sp
 11030f4:	910003f3 	mov	x19, sp
	msr	spsel, #1
 11030f8:	d50041bf 	msr	spsel, #0x1
	get_thread_ctx sp, 21, 20, 22
 11030fc:	794053f4 	ldrh	w20, [sp, #40]
 1103100:	58000395 	ldr	x21, 1103170 <__thread_enter_user_mode+0xa0>
 1103104:	d280e016 	mov	x22, #0x700                 	// #1792
 1103108:	9b165695 	madd	x21, x20, x22, x21
	str	x19, [x21, #THREAD_CTX_KERN_SP]
 110310c:	f900a6b3 	str	x19, [x21, #328]
	load_xregs x0, THREAD_CTX_REGS_SP, 1, 3
 1103110:	a9400801 	ldp	x1, x2, [x0]
 1103114:	f9400803 	ldr	x3, [x0, #16]
	msr	sp_el0, x1
 1103118:	d5184101 	msr	sp_el0, x1
	msr	elr_el1, x2
 110311c:	d5184022 	msr	elr_el1, x2
	msr	spsr_el1, x3
 1103120:	d5184003 	msr	spsr_el1, x3
	load_xregs x0, THREAD_CTX_REGS_X0, 1, 2
 1103124:	a9418801 	ldp	x1, x2, [x0, #24]
	store_xregs sp, THREAD_CORE_LOCAL_X0, 1, 2
 1103128:	a9000be1 	stp	x1, x2, [sp]
	load_xregs x0, THREAD_CTX_REGS_X2, 2, 30
 110312c:	a9428c02 	ldp	x2, x3, [x0, #40]
 1103130:	a9439404 	ldp	x4, x5, [x0, #56]
 1103134:	a9449c06 	ldp	x6, x7, [x0, #72]
 1103138:	a945a408 	ldp	x8, x9, [x0, #88]
 110313c:	a946ac0a 	ldp	x10, x11, [x0, #104]
 1103140:	a947b40c 	ldp	x12, x13, [x0, #120]
 1103144:	a948bc0e 	ldp	x14, x15, [x0, #136]
 1103148:	a949c410 	ldp	x16, x17, [x0, #152]
 110314c:	a94acc12 	ldp	x18, x19, [x0, #168]
 1103150:	a94bd414 	ldp	x20, x21, [x0, #184]
 1103154:	a94cdc16 	ldp	x22, x23, [x0, #200]
 1103158:	a94de418 	ldp	x24, x25, [x0, #216]
 110315c:	a94eec1a 	ldp	x26, x27, [x0, #232]
 1103160:	a94ff41c 	ldp	x28, x29, [x0, #248]
 1103164:	f940841e 	ldr	x30, [x0, #264]
	b eret_to_el0
 1103168:	17ffff87 	b	1102f84 <eret_to_el0>
 110316c:	00000000 	.inst	0x00000000 ; undefined
 1103170:	01168ac0 	.word	0x01168ac0
 1103174:	00000000 	.word	0x00000000

0000000001103178 <el0_svc>:
thread_excp_vect_end:
END_FUNC thread_excp_vect

LOCAL_FUNC el0_svc , :
	/* get pointer to current thread context in x0 */
	get_thread_ctx sp, 0, 1, 2
 1103178:	794053e1 	ldrh	w1, [sp, #40]
 110317c:	58000820 	ldr	x0, 1103280 <el0_svc+0x108>
 1103180:	d280e002 	mov	x2, #0x700                 	// #1792
 1103184:	9b020020 	madd	x0, x1, x2, x0
	mrs	x1, tpidr_el0
 1103188:	d53bd041 	mrs	x1, tpidr_el0
	str	x1, [x0, #THREAD_CTX_REGS_TPIDR_EL0]
 110318c:	f9008801 	str	x1, [x0, #272]
	/* load saved kernel sp */
	ldr	x0, [x0, #THREAD_CTX_KERN_SP]
 1103190:	f940a400 	ldr	x0, [x0, #328]
	/* Keep pointer to initial recod in x1 */
	mov	x1, sp
 1103194:	910003e1 	mov	x1, sp
	/* Switch to SP_EL0 and restore kernel sp */
	msr	spsel, #0
 1103198:	d50040bf 	msr	spsel, #0x0
	mov	x2, sp	/* Save SP_EL0 */
 110319c:	910003e2 	mov	x2, sp
	mov	sp, x0
 11031a0:	9100001f 	mov	sp, x0

	/* Make room for struct thread_svc_regs */
	sub	sp, sp, #THREAD_SVC_REG_SIZE
 11031a4:	d10283ff 	sub	sp, sp, #0xa0
	stp	x30,x2, [sp, #THREAD_SVC_REG_X30]
 11031a8:	a9088bfe 	stp	x30, x2, [sp, #136]

	/* Restore x0-x3 */
	ldp	x2, x3, [x1, #THREAD_CORE_LOCAL_X2]
 11031ac:	a9410c22 	ldp	x2, x3, [x1, #16]
	ldp	x0, x1, [x1, #THREAD_CORE_LOCAL_X0]
 11031b0:	a9400420 	ldp	x0, x1, [x1]

	/* Prepare the argument for the handler */
	store_xregs sp, THREAD_SVC_REG_X0, 0, 14
 11031b4:	a90107e0 	stp	x0, x1, [sp, #16]
 11031b8:	a9020fe2 	stp	x2, x3, [sp, #32]
 11031bc:	a90317e4 	stp	x4, x5, [sp, #48]
 11031c0:	a9041fe6 	stp	x6, x7, [sp, #64]
 11031c4:	a90527e8 	stp	x8, x9, [sp, #80]
 11031c8:	a9062fea 	stp	x10, x11, [sp, #96]
 11031cc:	a90737ec 	stp	x12, x13, [sp, #112]
 11031d0:	f90043ee 	str	x14, [sp, #128]
	mrs	x0, elr_el1
 11031d4:	d5384020 	mrs	x0, elr_el1
	mrs	x1, spsr_el1
 11031d8:	d5384001 	mrs	x1, spsr_el1
	store_xregs sp, THREAD_SVC_REG_ELR, 0, 1
 11031dc:	a90007e0 	stp	x0, x1, [sp]
	mov	x0, sp
 11031e0:	910003e0 	mov	x0, sp
	 * re-enable foreign interrupts by itself.
	 */
#if defined(CFG_ARM_GICV3)
	msr	daifclr, #(DAIFBIT_IRQ | DAIFBIT_ABT | DAIFBIT_DBG)
#else
	msr	daifclr, #(DAIFBIT_FIQ | DAIFBIT_ABT | DAIFBIT_DBG)
 11031e4:	d5034dff 	msr	daifclr, #0xd
#endif

	/* Call the handler */
	bl	thread_svc_handler
 11031e8:	94000c57 	bl	1106344 <thread_svc_handler>

	/* Mask all maskable exceptions since we're switching back to sp_el1 */
	msr	daifset, #DAIFBIT_ALL
 11031ec:	d5034fdf 	msr	daifset, #0xf
	 * Save kernel sp we'll had at the beginning of this function.
	 * This is when this TA has called another TA because
	 * __thread_enter_user_mode() also saves the stack pointer in this
	 * field.
	 */
	msr	spsel, #1
 11031f0:	d50041bf 	msr	spsel, #0x1
	get_thread_ctx sp, 0, 1, 2
 11031f4:	794053e1 	ldrh	w1, [sp, #40]
 11031f8:	58000440 	ldr	x0, 1103280 <el0_svc+0x108>
 11031fc:	d280e002 	mov	x2, #0x700                 	// #1792
 1103200:	9b020020 	madd	x0, x1, x2, x0
	msr	spsel, #0
 1103204:	d50040bf 	msr	spsel, #0x0
	add	x1, sp, #THREAD_SVC_REG_SIZE
 1103208:	910283e1 	add	x1, sp, #0xa0
	str	x1, [x0, #THREAD_CTX_KERN_SP]
 110320c:	f900a401 	str	x1, [x0, #328]

	/* Restore registers to the required state and return*/
	ldr	x1, [x0, #THREAD_CTX_REGS_TPIDR_EL0]
 1103210:	f9408801 	ldr	x1, [x0, #272]
	msr	tpidr_el0, x1
 1103214:	d51bd041 	msr	tpidr_el0, x1
	load_xregs sp, THREAD_SVC_REG_ELR, 0, 1
 1103218:	a94007e0 	ldp	x0, x1, [sp]
	msr	elr_el1, x0
 110321c:	d5184020 	msr	elr_el1, x0
	msr	spsr_el1, x1
 1103220:	d5184001 	msr	spsr_el1, x1
	load_xregs sp, THREAD_SVC_REG_X2, 2, 14
 1103224:	a9420fe2 	ldp	x2, x3, [sp, #32]
 1103228:	a94317e4 	ldp	x4, x5, [sp, #48]
 110322c:	a9441fe6 	ldp	x6, x7, [sp, #64]
 1103230:	a94527e8 	ldp	x8, x9, [sp, #80]
 1103234:	a9462fea 	ldp	x10, x11, [sp, #96]
 1103238:	a94737ec 	ldp	x12, x13, [sp, #112]
 110323c:	f94043ee 	ldr	x14, [sp, #128]
	mov	x30, sp
 1103240:	910003fe 	mov	x30, sp
	ldr	x0, [x30, #THREAD_SVC_REG_SP_EL0]
 1103244:	f9404bc0 	ldr	x0, [x30, #144]
	mov	sp, x0
 1103248:	9100001f 	mov	sp, x0
	b_if_spsr_is_el0 w1, 1f
 110324c:	37800101 	tbnz	w1, #16, 110326c <el0_svc+0xf4>
 1103250:	721e043f 	tst	w1, #0xc
 1103254:	540000c0 	b.eq	110326c <el0_svc+0xf4>  // b.none
	ldp	x0, x1, [x30, THREAD_SVC_REG_X0]
 1103258:	a94107c0 	ldp	x0, x1, [x30, #16]
	ldr	x30, [x30, #THREAD_SVC_REG_X30]
 110325c:	f94047de 	ldr	x30, [x30, #136]

	return_from_exception
 1103260:	d69f03e0 	eret
 1103264:	d503379f 	dsb	nsh
 1103268:	d5033fdf 	isb

1:	ldp	x0, x1, [x30, THREAD_SVC_REG_X0]
 110326c:	a94107c0 	ldp	x0, x1, [x30, #16]
	ldr	x30, [x30, #THREAD_SVC_REG_X30]
 1103270:	f94047de 	ldr	x30, [x30, #136]

	msr	spsel, #1
 1103274:	d50041bf 	msr	spsel, #0x1
	store_xregs sp, THREAD_CORE_LOCAL_X0, 0, 1
 1103278:	a90007e0 	stp	x0, x1, [sp]
	b	eret_to_el0
 110327c:	17ffff42 	b	1102f84 <eret_to_el0>
 1103280:	01168ac0 	.word	0x01168ac0
 1103284:	00000000 	.word	0x00000000

0000000001103288 <elx_irq>:

LOCAL_FUNC elx_irq , :
#if defined(CFG_ARM_GICV3)
	native_intr_handler	irq
#else
	foreign_intr_handler	irq
 1103288:	b9402fe1 	ldr	w1, [sp, #44]
 110328c:	531c6c21 	lsl	w1, w1, #4
 1103290:	32000021 	orr	w1, w1, #0x1
 1103294:	321e0021 	orr	w1, w1, #0x4
 1103298:	b9002fe1 	str	w1, [sp, #44]
 110329c:	794053e1 	ldrh	w1, [sp, #40]
 11032a0:	58000540 	ldr	x0, 1103348 <elx_irq+0xc0>
 11032a4:	d280e002 	mov	x2, #0x700                 	// #1792
 11032a8:	9b020020 	madd	x0, x1, x2, x0
 11032ac:	d5384102 	mrs	x2, sp_el0
 11032b0:	f9000002 	str	x2, [x0]
 11032b4:	d53bd042 	mrs	x2, tpidr_el0
 11032b8:	f9008802 	str	x2, [x0, #272]
 11032bc:	a9039404 	stp	x4, x5, [x0, #56]
 11032c0:	a9049c06 	stp	x6, x7, [x0, #72]
 11032c4:	a905a408 	stp	x8, x9, [x0, #88]
 11032c8:	a906ac0a 	stp	x10, x11, [x0, #104]
 11032cc:	a907b40c 	stp	x12, x13, [x0, #120]
 11032d0:	a908bc0e 	stp	x14, x15, [x0, #136]
 11032d4:	a909c410 	stp	x16, x17, [x0, #152]
 11032d8:	a90acc12 	stp	x18, x19, [x0, #168]
 11032dc:	a90bd414 	stp	x20, x21, [x0, #184]
 11032e0:	a90cdc16 	stp	x22, x23, [x0, #200]
 11032e4:	a90de418 	stp	x24, x25, [x0, #216]
 11032e8:	a90eec1a 	stp	x26, x27, [x0, #232]
 11032ec:	a90ff41c 	stp	x28, x29, [x0, #248]
 11032f0:	f900841e 	str	x30, [x0, #264]
 11032f4:	a9402fea 	ldp	x10, x11, [sp]
 11032f8:	a94137ec 	ldp	x12, x13, [sp, #16]
 11032fc:	a901ac0a 	stp	x10, x11, [x0, #24]
 1103300:	a902b40c 	stp	x12, x13, [x0, #40]
 1103304:	f94013e1 	ldr	x1, [sp, #32]
 1103308:	d50040bf 	msr	spsel, #0x0
 110330c:	9100003f 	mov	sp, x1
 1103310:	d2800020 	mov	x0, #0x1                   	// #1
 1103314:	94000508 	bl	1104734 <dcache_op_louis>
 1103318:	d508751f 	ic	iallu
 110331c:	52800080 	mov	w0, #0x4                   	// #4
 1103320:	d5384001 	mrs	x1, spsr_el1
 1103324:	d5384022 	mrs	x2, elr_el1
 1103328:	94000b3e 	bl	1106020 <thread_state_suspend>
 110332c:	d50041bf 	msr	spsel, #0x1
 1103330:	b9402fe1 	ldr	w1, [sp, #44]
 1103334:	53047c21 	lsr	w1, w1, #4
 1103338:	32000021 	orr	w1, w1, #0x1
 110333c:	b9002fe1 	str	w1, [sp, #44]
 1103340:	d50040bf 	msr	spsel, #0x0
 1103344:	14000f92 	b	110718c <thread_foreign_intr_exit>
 1103348:	01168ac0 	.word	0x01168ac0
 110334c:	00000000 	.word	0x00000000

0000000001103350 <thread_std_smc_entry>:
END_FUNC thread_vector_table
DECLARE_KEEP_PAGER thread_vector_table

FUNC thread_std_smc_entry , :
	bl	__thread_std_smc_entry
 1103350:	94000e34 	bl	1106c20 <__thread_std_smc_entry>
	mov	w20, w0	/* Save return value for later */
 1103354:	2a0003f4 	mov	w20, w0

	/* Mask all maskable exceptions before switching to temporary stack */
	msr	daifset, #DAIFBIT_ALL
 1103358:	d5034fdf 	msr	daifset, #0xf
	bl	thread_get_tmp_sp
 110335c:	940007af 	bl	1105218 <thread_get_tmp_sp>
	mov	sp, x0
 1103360:	9100001f 	mov	sp, x0

	bl	thread_state_free
 1103364:	94000922 	bl	11057ec <thread_state_free>

	ldr	x0, =TEESMC_OPTEED_RETURN_CALL_DONE
 1103368:	58000100 	ldr	x0, 1103388 <thread_std_smc_entry+0x38>
	mov	w1, w20
 110336c:	2a1403e1 	mov	w1, w20
	mov	x2, #0
 1103370:	d2800002 	mov	x2, #0x0                   	// #0
	mov	x3, #0
 1103374:	d2800003 	mov	x3, #0x0                   	// #0
	mov	x4, #0
 1103378:	d2800004 	mov	x4, #0x0                   	// #0
	smc	#0
 110337c:	d4000003 	smc	#0x0
	b	.	/* SMC should not return */
 1103380:	14000000 	b	1103380 <thread_std_smc_entry+0x30>
 1103384:	00000000 	.inst	0x00000000 ; undefined
 1103388:	be000005 	.word	0xbe000005
 110338c:	00000000 	.word	0x00000000

0000000001103390 <memcpy>:
	long *aligned_dst;
	_CONST long *aligned_src;

	/* If the size is small, or either SRC or DST is unaligned,
	   then punt into the byte copy loop.  This should be rare.  */
	if (!TOO_SMALL(len0) && !UNALIGNED(src, dst)) {
 1103390:	f1007c5f 	cmp	x2, #0x1f
 1103394:	54000629 	b.ls	1103458 <memcpy+0xc8>  // b.plast
 1103398:	aa000025 	orr	x5, x1, x0
 110339c:	f24008a5 	ands	x5, x5, #0x7
 11033a0:	54000641 	b.ne	1103468 <memcpy+0xd8>  // b.any
 11033a4:	d1008048 	sub	x8, x2, #0x20
		aligned_dst = (long *)dst;
		aligned_src = (long *)src;
 11033a8:	aa0103e4 	mov	x4, x1
 11033ac:	927be908 	and	x8, x8, #0xffffffffffffffe0
		aligned_dst = (long *)dst;
 11033b0:	aa0003e3 	mov	x3, x0
 11033b4:	91008108 	add	x8, x8, #0x20
 11033b8:	8b080007 	add	x7, x0, x8
 11033bc:	d503201f 	nop

		/* Copy 4X long words at a time if possible.  */
		while (len0 >= BIGBLOCKSIZE) {
			*aligned_dst++ = *aligned_src++;
 11033c0:	f9400086 	ldr	x6, [x4]
 11033c4:	f9000066 	str	x6, [x3]
			*aligned_dst++ = *aligned_src++;
 11033c8:	91008084 	add	x4, x4, #0x20
 11033cc:	91008063 	add	x3, x3, #0x20
 11033d0:	f85e8086 	ldur	x6, [x4, #-24]
 11033d4:	f81e8066 	stur	x6, [x3, #-24]
			*aligned_dst++ = *aligned_src++;
 11033d8:	f85f0086 	ldur	x6, [x4, #-16]
 11033dc:	f81f0066 	stur	x6, [x3, #-16]
		while (len0 >= BIGBLOCKSIZE) {
 11033e0:	eb0300ff 	cmp	x7, x3
			*aligned_dst++ = *aligned_src++;
 11033e4:	f85f8086 	ldur	x6, [x4, #-8]
 11033e8:	f81f8066 	stur	x6, [x3, #-8]
		while (len0 >= BIGBLOCKSIZE) {
 11033ec:	54fffea1 	b.ne	11033c0 <memcpy+0x30>  // b.any
 11033f0:	8b080021 	add	x1, x1, x8
			len0 -= BIGBLOCKSIZE;
		}

		/* Copy one long word at a time if possible.  */
		while (len0 >= LITTLEBLOCKSIZE) {
 11033f4:	f27d045f 	tst	x2, #0x18
 11033f8:	92401044 	and	x4, x2, #0x1f
 11033fc:	540003c0 	b.eq	1103474 <memcpy+0xe4>  // b.none
			*aligned_dst++ = *aligned_src++;
 1103400:	f8656826 	ldr	x6, [x1, x5]
 1103404:	f8256866 	str	x6, [x3, x5]
		while (len0 >= LITTLEBLOCKSIZE) {
 1103408:	910020a5 	add	x5, x5, #0x8
 110340c:	cb050086 	sub	x6, x4, x5
 1103410:	f1001cdf 	cmp	x6, #0x7
 1103414:	54ffff68 	b.hi	1103400 <memcpy+0x70>  // b.pmore
 1103418:	d1002084 	sub	x4, x4, #0x8
 110341c:	92400842 	and	x2, x2, #0x7
 1103420:	927df084 	and	x4, x4, #0xfffffffffffffff8
		/* Pick up any residual with a byte copier.  */
		dst = (char *)aligned_dst;
		src = (char *)aligned_src;
	}

	while (len0--)
 1103424:	d1000446 	sub	x6, x2, #0x1
 1103428:	91002084 	add	x4, x4, #0x8
 110342c:	8b040063 	add	x3, x3, x4
 1103430:	8b040021 	add	x1, x1, x4
 1103434:	b4000102 	cbz	x2, 1103454 <memcpy+0xc4>
	char *dst = dst0;
 1103438:	d2800002 	mov	x2, #0x0                   	// #0
 110343c:	d503201f 	nop
		*dst++ = *src++;
 1103440:	38626825 	ldrb	w5, [x1, x2]
	while (len0--)
 1103444:	eb0200df 	cmp	x6, x2
		*dst++ = *src++;
 1103448:	38226865 	strb	w5, [x3, x2]
	while (len0--)
 110344c:	91000442 	add	x2, x2, #0x1
 1103450:	54ffff81 	b.ne	1103440 <memcpy+0xb0>  // b.any

	return dst0;
#endif /* not PREFER_SIZE_OVER_SPEED */
}
 1103454:	d65f03c0 	ret
	char *dst = dst0;
 1103458:	aa0003e3 	mov	x3, x0
	while (len0--)
 110345c:	d1000446 	sub	x6, x2, #0x1
 1103460:	b5fffec2 	cbnz	x2, 1103438 <memcpy+0xa8>
}
 1103464:	d65f03c0 	ret
	while (len0--)
 1103468:	d1000446 	sub	x6, x2, #0x1
	char *dst = dst0;
 110346c:	aa0003e3 	mov	x3, x0
 1103470:	17fffff2 	b	1103438 <memcpy+0xa8>
		while (len0 >= LITTLEBLOCKSIZE) {
 1103474:	aa0403e2 	mov	x2, x4
 1103478:	17fffff9 	b	110345c <memcpy+0xcc>
 110347c:	00000000 	.inst	0x00000000 ; undefined

0000000001103480 <__udivti3>:
 1103480:	aa0203e4 	mov	x4, x2
 1103484:	aa0003e5 	mov	x5, x0
 1103488:	aa0103e6 	mov	x6, x1
 110348c:	b50004e3 	cbnz	x3, 1103528 <__udivti3+0xa8>
 1103490:	eb01005f 	cmp	x2, x1
 1103494:	54000d49 	b.ls	110363c <__udivti3+0x1bc>  // b.plast
 1103498:	dac01040 	clz	x0, x2
 110349c:	b40000e0 	cbz	x0, 11034b8 <__udivti3+0x38>
 11034a0:	4b0003e1 	neg	w1, w0
 11034a4:	9ac020c2 	lsl	x2, x6, x0
 11034a8:	9ac02084 	lsl	x4, x4, x0
 11034ac:	9ac124a6 	lsr	x6, x5, x1
 11034b0:	aa0200c6 	orr	x6, x6, x2
 11034b4:	9ac020a5 	lsl	x5, x5, x0
 11034b8:	d360fc83 	lsr	x3, x4, #32
 11034bc:	92407c87 	and	x7, x4, #0xffffffff
 11034c0:	9ac308c2 	udiv	x2, x6, x3
 11034c4:	aa0203e0 	mov	x0, x2
 11034c8:	9b039842 	msub	x2, x2, x3, x6
 11034cc:	9b007ce6 	mul	x6, x7, x0
 11034d0:	93c58041 	extr	x1, x2, x5, #32
 11034d4:	eb0100df 	cmp	x6, x1
 11034d8:	540000a9 	b.ls	11034ec <__udivti3+0x6c>  // b.plast
 11034dc:	ab010081 	adds	x1, x4, x1
 11034e0:	fa4130c0 	ccmp	x6, x1, #0x0, cc  // cc = lo, ul, last
 11034e4:	54001648 	b.hi	11037ac <__udivti3+0x32c>  // b.pmore
 11034e8:	d1000400 	sub	x0, x0, #0x1
 11034ec:	cb060021 	sub	x1, x1, x6
 11034f0:	9ac30826 	udiv	x6, x1, x3
 11034f4:	9b0384c1 	msub	x1, x6, x3, x1
 11034f8:	aa0603e2 	mov	x2, x6
 11034fc:	9b067ce7 	mul	x7, x7, x6
 1103500:	b3607c25 	bfi	x5, x1, #32, #32
 1103504:	eb0500ff 	cmp	x7, x5
 1103508:	540000a9 	b.ls	110351c <__udivti3+0x9c>  // b.plast
 110350c:	ab050085 	adds	x5, x4, x5
 1103510:	fa4530e0 	ccmp	x7, x5, #0x0, cc  // cc = lo, ul, last
 1103514:	9a8684c2 	cinc	x2, x6, ls  // ls = plast
 1103518:	d1000842 	sub	x2, x2, #0x2
 110351c:	aa008040 	orr	x0, x2, x0, lsl #32
 1103520:	d2800001 	mov	x1, #0x0                   	// #0
 1103524:	d65f03c0 	ret
 1103528:	eb01007f 	cmp	x3, x1
 110352c:	54000089 	b.ls	110353c <__udivti3+0xbc>  // b.plast
 1103530:	d2800001 	mov	x1, #0x0                   	// #0
 1103534:	d2800000 	mov	x0, #0x0                   	// #0
 1103538:	d65f03c0 	ret
 110353c:	dac01067 	clz	x7, x3
 1103540:	b40010a7 	cbz	x7, 1103754 <__udivti3+0x2d4>
 1103544:	d2800804 	mov	x4, #0x40                  	// #64
 1103548:	cb070084 	sub	x4, x4, x7
 110354c:	9ac72063 	lsl	x3, x3, x7
 1103550:	9ac42445 	lsr	x5, x2, x4
 1103554:	aa0300a3 	orr	x3, x5, x3
 1103558:	9ac42426 	lsr	x6, x1, x4
 110355c:	92407c68 	and	x8, x3, #0xffffffff
 1103560:	d360fc6a 	lsr	x10, x3, #32
 1103564:	9ac42404 	lsr	x4, x0, x4
 1103568:	9ac72021 	lsl	x1, x1, x7
 110356c:	aa010081 	orr	x1, x4, x1
 1103570:	9ac72042 	lsl	x2, x2, x7
 1103574:	9aca08c5 	udiv	x5, x6, x10
 1103578:	aa0503e4 	mov	x4, x5
 110357c:	9b0a98a5 	msub	x5, x5, x10, x6
 1103580:	9b047d06 	mul	x6, x8, x4
 1103584:	93c180a5 	extr	x5, x5, x1, #32
 1103588:	eb0500df 	cmp	x6, x5
 110358c:	540000a9 	b.ls	11035a0 <__udivti3+0x120>  // b.plast
 1103590:	ab050065 	adds	x5, x3, x5
 1103594:	fa4530c0 	ccmp	x6, x5, #0x0, cc  // cc = lo, ul, last
 1103598:	54000fe8 	b.hi	1103794 <__udivti3+0x314>  // b.pmore
 110359c:	d1000484 	sub	x4, x4, #0x1
 11035a0:	cb0600a6 	sub	x6, x5, x6
 11035a4:	9aca08c9 	udiv	x9, x6, x10
 11035a8:	9b0a9926 	msub	x6, x9, x10, x6
 11035ac:	aa0903e5 	mov	x5, x9
 11035b0:	9b097d08 	mul	x8, x8, x9
 11035b4:	b3607cc1 	bfi	x1, x6, #32, #32
 11035b8:	eb01011f 	cmp	x8, x1
 11035bc:	540000a9 	b.ls	11035d0 <__udivti3+0x150>  // b.plast
 11035c0:	ab010061 	adds	x1, x3, x1
 11035c4:	fa413100 	ccmp	x8, x1, #0x0, cc  // cc = lo, ul, last
 11035c8:	54000da8 	b.hi	110377c <__udivti3+0x2fc>  // b.pmore
 11035cc:	d1000525 	sub	x5, x9, #0x1
 11035d0:	aa0480a4 	orr	x4, x5, x4, lsl #32
 11035d4:	92407c49 	and	x9, x2, #0xffffffff
 11035d8:	2a0503e5 	mov	w5, w5
 11035dc:	d360fc42 	lsr	x2, x2, #32
 11035e0:	d360fc86 	lsr	x6, x4, #32
 11035e4:	cb080021 	sub	x1, x1, x8
 11035e8:	d2c0002a 	mov	x10, #0x100000000           	// #4294967296
 11035ec:	9b097cab 	mul	x11, x5, x9
 11035f0:	9b097cc8 	mul	x8, x6, x9
 11035f4:	9b0220a5 	madd	x5, x5, x2, x8
 11035f8:	9b027cc2 	mul	x2, x6, x2
 11035fc:	8b4b80a3 	add	x3, x5, x11, lsr #32
 1103600:	8b0a0045 	add	x5, x2, x10
 1103604:	eb03011f 	cmp	x8, x3
 1103608:	9a8280a2 	csel	x2, x5, x2, hi  // hi = pmore
 110360c:	8b438042 	add	x2, x2, x3, lsr #32
 1103610:	eb02003f 	cmp	x1, x2
 1103614:	540000e3 	b.cc	1103630 <__udivti3+0x1b0>  // b.lo, b.ul, b.last
 1103618:	92407d6b 	and	x11, x11, #0xffffffff
 110361c:	9ac72000 	lsl	x0, x0, x7
 1103620:	8b038163 	add	x3, x11, x3, lsl #32
 1103624:	eb03001f 	cmp	x0, x3
 1103628:	fa423020 	ccmp	x1, x2, #0x0, cc  // cc = lo, ul, last
 110362c:	540009c1 	b.ne	1103764 <__udivti3+0x2e4>  // b.any
 1103630:	d1000480 	sub	x0, x4, #0x1
 1103634:	d2800001 	mov	x1, #0x0                   	// #0
 1103638:	d65f03c0 	ret
 110363c:	b5000062 	cbnz	x2, 1103648 <__udivti3+0x1c8>
 1103640:	d2800022 	mov	x2, #0x1                   	// #1
 1103644:	9ac40844 	udiv	x4, x2, x4
 1103648:	dac01088 	clz	x8, x4
 110364c:	b50003c8 	cbnz	x8, 11036c4 <__udivti3+0x244>
 1103650:	d360fc86 	lsr	x6, x4, #32
 1103654:	92407c87 	and	x7, x4, #0xffffffff
 1103658:	cb040022 	sub	x2, x1, x4
 110365c:	d2800021 	mov	x1, #0x1                   	// #1
 1103660:	9ac60843 	udiv	x3, x2, x6
 1103664:	aa0303e0 	mov	x0, x3
 1103668:	9b068863 	msub	x3, x3, x6, x2
 110366c:	9b077c08 	mul	x8, x0, x7
 1103670:	93c58062 	extr	x2, x3, x5, #32
 1103674:	eb02011f 	cmp	x8, x2
 1103678:	540000a9 	b.ls	110368c <__udivti3+0x20c>  // b.plast
 110367c:	ab020082 	adds	x2, x4, x2
 1103680:	fa423100 	ccmp	x8, x2, #0x0, cc  // cc = lo, ul, last
 1103684:	540008e8 	b.hi	11037a0 <__udivti3+0x320>  // b.pmore
 1103688:	d1000400 	sub	x0, x0, #0x1
 110368c:	cb080042 	sub	x2, x2, x8
 1103690:	9ac60848 	udiv	x8, x2, x6
 1103694:	9b068902 	msub	x2, x8, x6, x2
 1103698:	aa0803e3 	mov	x3, x8
 110369c:	9b077d07 	mul	x7, x8, x7
 11036a0:	b3607c45 	bfi	x5, x2, #32, #32
 11036a4:	eb0500ff 	cmp	x7, x5
 11036a8:	540000a9 	b.ls	11036bc <__udivti3+0x23c>  // b.plast
 11036ac:	ab050084 	adds	x4, x4, x5
 11036b0:	fa4430e0 	ccmp	x7, x4, #0x0, cc  // cc = lo, ul, last
 11036b4:	9a888503 	cinc	x3, x8, ls  // ls = plast
 11036b8:	d1000863 	sub	x3, x3, #0x2
 11036bc:	aa008060 	orr	x0, x3, x0, lsl #32
 11036c0:	d65f03c0 	ret
 11036c4:	9ac82084 	lsl	x4, x4, x8
 11036c8:	d2800803 	mov	x3, #0x40                  	// #64
 11036cc:	cb080063 	sub	x3, x3, x8
 11036d0:	d360fc86 	lsr	x6, x4, #32
 11036d4:	9ac82022 	lsl	x2, x1, x8
 11036d8:	92407c87 	and	x7, x4, #0xffffffff
 11036dc:	9ac32421 	lsr	x1, x1, x3
 11036e0:	9ac32403 	lsr	x3, x0, x3
 11036e4:	aa020063 	orr	x3, x3, x2
 11036e8:	9ac60822 	udiv	x2, x1, x6
 11036ec:	9ac82005 	lsl	x5, x0, x8
 11036f0:	9b068441 	msub	x1, x2, x6, x1
 11036f4:	aa0203e0 	mov	x0, x2
 11036f8:	9b027ce2 	mul	x2, x7, x2
 11036fc:	93c38021 	extr	x1, x1, x3, #32
 1103700:	eb01005f 	cmp	x2, x1
 1103704:	540000a9 	b.ls	1103718 <__udivti3+0x298>  // b.plast
 1103708:	ab010081 	adds	x1, x4, x1
 110370c:	fa413040 	ccmp	x2, x1, #0x0, cc  // cc = lo, ul, last
 1103710:	54000308 	b.hi	1103770 <__udivti3+0x2f0>  // b.pmore
 1103714:	d1000400 	sub	x0, x0, #0x1
 1103718:	cb020021 	sub	x1, x1, x2
 110371c:	9ac60822 	udiv	x2, x1, x6
 1103720:	9b068441 	msub	x1, x2, x6, x1
 1103724:	aa0203e8 	mov	x8, x2
 1103728:	9b027ce2 	mul	x2, x7, x2
 110372c:	b3607c23 	bfi	x3, x1, #32, #32
 1103730:	eb03005f 	cmp	x2, x3
 1103734:	540000a9 	b.ls	1103748 <__udivti3+0x2c8>  // b.plast
 1103738:	ab030083 	adds	x3, x4, x3
 110373c:	fa433040 	ccmp	x2, x3, #0x0, cc  // cc = lo, ul, last
 1103740:	54000248 	b.hi	1103788 <__udivti3+0x308>  // b.pmore
 1103744:	d1000508 	sub	x8, x8, #0x1
 1103748:	cb020062 	sub	x2, x3, x2
 110374c:	aa008101 	orr	x1, x8, x0, lsl #32
 1103750:	17ffffc4 	b	1103660 <__udivti3+0x1e0>
 1103754:	fa402040 	ccmp	x2, x0, #0x0, cs  // cs = hs, nlast
 1103758:	d2800001 	mov	x1, #0x0                   	// #0
 110375c:	9a9f87e0 	cset	x0, ls  // ls = plast
 1103760:	d65f03c0 	ret
 1103764:	aa0403e0 	mov	x0, x4
 1103768:	d2800001 	mov	x1, #0x0                   	// #0
 110376c:	d65f03c0 	ret
 1103770:	d1000800 	sub	x0, x0, #0x2
 1103774:	8b040021 	add	x1, x1, x4
 1103778:	17ffffe8 	b	1103718 <__udivti3+0x298>
 110377c:	d1000925 	sub	x5, x9, #0x2
 1103780:	8b030021 	add	x1, x1, x3
 1103784:	17ffff93 	b	11035d0 <__udivti3+0x150>
 1103788:	d1000908 	sub	x8, x8, #0x2
 110378c:	8b040063 	add	x3, x3, x4
 1103790:	17ffffee 	b	1103748 <__udivti3+0x2c8>
 1103794:	d1000884 	sub	x4, x4, #0x2
 1103798:	8b0300a5 	add	x5, x5, x3
 110379c:	17ffff81 	b	11035a0 <__udivti3+0x120>
 11037a0:	d1000800 	sub	x0, x0, #0x2
 11037a4:	8b040042 	add	x2, x2, x4
 11037a8:	17ffffb9 	b	110368c <__udivti3+0x20c>
 11037ac:	d1000800 	sub	x0, x0, #0x2
 11037b0:	8b040021 	add	x1, x1, x4
 11037b4:	17ffff4e 	b	11034ec <__udivti3+0x6c>

00000000011037b8 <alloc_and_map_ldelf_fobj>:
#endif

static TEE_Result alloc_and_map_ldelf_fobj(struct user_mode_ctx *uctx,
					   size_t sz, uint32_t prot,
					   vaddr_t *va)
{
 11037b8:	d10143ff 	sub	sp, sp, #0x50
	size_t num_pgs = ROUNDUP(sz, SMALL_PAGE_SIZE) / SMALL_PAGE_SIZE;
 11037bc:	913ffc21 	add	x1, x1, #0xfff
{
 11037c0:	a9017bfd 	stp	x29, x30, [sp, #16]
 11037c4:	910043fd 	add	x29, sp, #0x10
 11037c8:	a90253f3 	stp	x19, x20, [sp, #32]
	size_t num_pgs = ROUNDUP(sz, SMALL_PAGE_SIZE) / SMALL_PAGE_SIZE;
 11037cc:	d34cfc34 	lsr	x20, x1, #12
{
 11037d0:	a9035bf5 	stp	x21, x22, [sp, #48]
 11037d4:	aa0003f6 	mov	x22, x0
	struct fobj *fobj = fobj_ta_mem_alloc(num_pgs);
 11037d8:	2a1403e0 	mov	w0, w20
{
 11037dc:	a90463f7 	stp	x23, x24, [sp, #64]
 11037e0:	2a0203f8 	mov	w24, w2
 11037e4:	aa0303f7 	mov	x23, x3
	struct fobj *fobj = fobj_ta_mem_alloc(num_pgs);
 11037e8:	94005398 	bl	1118648 <fobj_sec_mem_alloc>
 11037ec:	aa0003f5 	mov	x21, x0
	struct mobj *mobj = mobj_with_fobj_alloc(fobj, NULL);
 11037f0:	d2800001 	mov	x1, #0x0                   	// #0
 11037f4:	9400531c 	bl	1118464 <mobj_with_fobj_alloc>
 11037f8:	aa0003f3 	mov	x19, x0
 * If reference counter reaches 0, matching the numbers of fobj_alloc_*() +
 * fobj_get(), the fobj is freed.
 */
static inline void fobj_put(struct fobj *fobj)
{
	if (fobj && refcount_dec(&fobj->refc))
 11037fc:	b4000135 	cbz	x21, 1103820 <alloc_and_map_ldelf_fobj+0x68>
 1103800:	910032a0 	add	x0, x21, #0xc
 1103804:	94003f6a 	bl	11135ac <refcount_dec>
 1103808:	72001c1f 	tst	w0, #0xff
 110380c:	540000a0 	b.eq	1103820 <alloc_and_map_ldelf_fobj+0x68>  // b.none
		fobj->ops->free(fobj);
 1103810:	f94002a0 	ldr	x0, [x21]
 1103814:	f9400001 	ldr	x1, [x0]
 1103818:	aa1503e0 	mov	x0, x21
 110381c:	d63f0020 	blr	x1
	TEE_Result res = TEE_SUCCESS;

	fobj_put(fobj);
	if (!mobj)
 1103820:	b4000373 	cbz	x19, 110388c <alloc_and_map_ldelf_fobj+0xd4>
 */
static inline TEE_Result vm_map(struct user_mode_ctx *uctx, vaddr_t *va,
				size_t len, uint32_t prot, uint32_t flags,
				struct mobj *mobj, size_t offs)
{
	return vm_map_pad(uctx, va, len, prot, flags, mobj, offs, 0, 0, 0);
 1103824:	d374ce82 	lsl	x2, x20, #12
 1103828:	aa1303e5 	mov	x5, x19
 110382c:	2a1803e3 	mov	w3, w24
 1103830:	aa1703e1 	mov	x1, x23
 1103834:	a9007fff 	stp	xzr, xzr, [sp]
 1103838:	d2800007 	mov	x7, #0x0                   	// #0
 110383c:	d2800006 	mov	x6, #0x0                   	// #0
 1103840:	52800104 	mov	w4, #0x8                   	// #8
 1103844:	aa1603e0 	mov	x0, x22
 1103848:	940058bc 	bl	1119b38 <vm_map_pad>
 110384c:	2a0003f4 	mov	w20, w0
 * Decreases reference counter of the @mobj and frees it if the counter
 * reaches 0.
 */
static inline void mobj_put(struct mobj *mobj)
{
	if (mobj && refcount_dec(&mobj->refc))
 1103850:	91006260 	add	x0, x19, #0x18
 1103854:	94003f56 	bl	11135ac <refcount_dec>
 1103858:	72001c1f 	tst	w0, #0xff
 110385c:	540000a0 	b.eq	1103870 <alloc_and_map_ldelf_fobj+0xb8>  // b.none
		mobj->ops->free(mobj);
 1103860:	f9400260 	ldr	x0, [x19]
 1103864:	f9401401 	ldr	x1, [x0, #40]
 1103868:	aa1303e0 	mov	x0, x19
 110386c:	d63f0020 	blr	x1
	res = vm_map(uctx, va, num_pgs * SMALL_PAGE_SIZE,
		     prot, VM_FLAG_LDELF, mobj, 0);
	mobj_put(mobj);

	return res;
}
 1103870:	2a1403e0 	mov	w0, w20
 1103874:	a9417bfd 	ldp	x29, x30, [sp, #16]
 1103878:	a94253f3 	ldp	x19, x20, [sp, #32]
 110387c:	a9435bf5 	ldp	x21, x22, [sp, #48]
 1103880:	a94463f7 	ldp	x23, x24, [sp, #64]
 1103884:	910143ff 	add	sp, sp, #0x50
 1103888:	d65f03c0 	ret
		return TEE_ERROR_OUT_OF_MEMORY;
 110388c:	129ffe74 	mov	w20, #0xffff000c            	// #-65524
 1103890:	17fffff8 	b	1103870 <alloc_and_map_ldelf_fobj+0xb8>

0000000001103894 <ldelf_load_ldelf>:
 * This function may leave a few mappings behind on error, but that's taken
 * care of by tee_ta_init_user_ta_session() since the entire context is
 * removed then.
 */
TEE_Result ldelf_load_ldelf(struct user_mode_ctx *uctx)
{
 1103894:	a9ba7bfd 	stp	x29, x30, [sp, #-96]!
	vaddr_t code_addr = 0;
	vaddr_t rw_addr = 0;

	uctx->is_32bit = is_arm32;

	res = alloc_and_map_ldelf_fobj(uctx, LDELF_STACK_SIZE,
 1103898:	52803602 	mov	w2, #0x1b0                 	// #432
 110389c:	d2840001 	mov	x1, #0x2000                	// #8192
{
 11038a0:	910003fd 	mov	x29, sp
 11038a4:	a90153f3 	stp	x19, x20, [sp, #16]
	res = alloc_and_map_ldelf_fobj(uctx, LDELF_STACK_SIZE,
 11038a8:	910123e3 	add	x3, sp, #0x48
{
 11038ac:	aa0003f4 	mov	x20, x0
 11038b0:	a9025bf5 	stp	x21, x22, [sp, #32]
 11038b4:	a90363f7 	stp	x23, x24, [sp, #48]
	uctx->is_32bit = is_arm32;
 11038b8:	3909a01f 	strb	wzr, [x0, #616]
	vaddr_t code_addr = 0;
 11038bc:	a904ffff 	stp	xzr, xzr, [sp, #72]
	vaddr_t rw_addr = 0;
 11038c0:	f9002fff 	str	xzr, [sp, #88]
	res = alloc_and_map_ldelf_fobj(uctx, LDELF_STACK_SIZE,
 11038c4:	97ffffbd 	bl	11037b8 <alloc_and_map_ldelf_fobj>
 11038c8:	2a0003f3 	mov	w19, w0
				       TEE_MATTR_URW | TEE_MATTR_PRW,
				       &stack_addr);
	if (res)
 11038cc:	350007a0 	cbnz	w0, 11039c0 <ldelf_load_ldelf+0x12c>
		return res;
	uctx->ldelf_stack_ptr = stack_addr + LDELF_STACK_SIZE;
 11038d0:	f94027e0 	ldr	x0, [sp, #72]

	res = alloc_and_map_ldelf_fobj(uctx, ldelf_code_size, TEE_MATTR_PRW,
 11038d4:	f00002b5 	adrp	x21, 115a000 <__scattered_array_1phys_mem_map+0x8>
 11038d8:	910143e3 	add	x3, sp, #0x50
 11038dc:	52800602 	mov	w2, #0x30                  	// #48
	uctx->ldelf_stack_ptr = stack_addr + LDELF_STACK_SIZE;
 11038e0:	91400800 	add	x0, x0, #0x2, lsl #12
 11038e4:	f9013280 	str	x0, [x20, #608]
	res = alloc_and_map_ldelf_fobj(uctx, ldelf_code_size, TEE_MATTR_PRW,
 11038e8:	f941a6a0 	ldr	x0, [x21, #840]
 11038ec:	b9400016 	ldr	w22, [x0]
 11038f0:	aa1403e0 	mov	x0, x20
 11038f4:	2a1603f7 	mov	w23, w22
 11038f8:	aa1703e1 	mov	x1, x23
 11038fc:	97ffffaf 	bl	11037b8 <alloc_and_map_ldelf_fobj>
 1103900:	2a0003f3 	mov	w19, w0
				       &code_addr);
	if (res)
 1103904:	350005e0 	cbnz	w0, 11039c0 <ldelf_load_ldelf+0x12c>
		return res;
	uctx->entry_func = code_addr + ldelf_entry;
 1103908:	f94196a1 	ldr	x1, [x21, #808]

	rw_addr = ROUNDUP(code_addr + ldelf_code_size, SMALL_PAGE_SIZE);
	res = alloc_and_map_ldelf_fobj(uctx, ldelf_data_size,
 110390c:	910163e3 	add	x3, sp, #0x58
	uctx->entry_func = code_addr + ldelf_entry;
 1103910:	f9402be0 	ldr	x0, [sp, #80]
	res = alloc_and_map_ldelf_fobj(uctx, ldelf_data_size,
 1103914:	52803602 	mov	w2, #0x1b0                 	// #432
	uctx->entry_func = code_addr + ldelf_entry;
 1103918:	b9400021 	ldr	w1, [x1]
 110391c:	8b000021 	add	x1, x1, x0
	rw_addr = ROUNDUP(code_addr + ldelf_code_size, SMALL_PAGE_SIZE);
 1103920:	913ffc00 	add	x0, x0, #0xfff
 1103924:	8b170000 	add	x0, x0, x23
	uctx->entry_func = code_addr + ldelf_entry;
 1103928:	f9012681 	str	x1, [x20, #584]
	rw_addr = ROUNDUP(code_addr + ldelf_code_size, SMALL_PAGE_SIZE);
 110392c:	9274cc00 	and	x0, x0, #0xfffffffffffff000
 1103930:	f9002fe0 	str	x0, [sp, #88]
	res = alloc_and_map_ldelf_fobj(uctx, ldelf_data_size,
 1103934:	f94176a0 	ldr	x0, [x21, #744]
 1103938:	b9400018 	ldr	w24, [x0]
 110393c:	aa1403e0 	mov	x0, x20
 1103940:	aa1803e1 	mov	x1, x24
 1103944:	97ffff9d 	bl	11037b8 <alloc_and_map_ldelf_fobj>
 1103948:	2a0003f3 	mov	w19, w0
				       TEE_MATTR_URW | TEE_MATTR_PRW, &rw_addr);
	if (res)
 110394c:	350003a0 	cbnz	w0, 11039c0 <ldelf_load_ldelf+0x12c>
		return res;

	vm_set_ctx(uctx->ts_ctx);
 1103950:	f9412280 	ldr	x0, [x20, #576]
 1103954:	940057e2 	bl	11198dc <vm_set_ctx>

	memcpy((void *)code_addr, ldelf_data, ldelf_code_size);
 1103958:	f9402be0 	ldr	x0, [sp, #80]
 110395c:	aa1703e2 	mov	x2, x23
 1103960:	f941eab5 	ldr	x21, [x21, #976]
 1103964:	aa1503e1 	mov	x1, x21
 1103968:	97fffe8a 	bl	1103390 <memcpy>
	memcpy((void *)rw_addr, ldelf_data + ldelf_code_size, ldelf_data_size);
 110396c:	f9402fe0 	ldr	x0, [sp, #88]
 1103970:	aa1803e2 	mov	x2, x24
 1103974:	8b1702a1 	add	x1, x21, x23
 1103978:	97fffe86 	bl	1103390 <memcpy>

	res = vm_set_prot(uctx, code_addr,
 110397c:	f9402be1 	ldr	x1, [sp, #80]
			  ROUNDUP(ldelf_code_size, SMALL_PAGE_SIZE),
 1103980:	113ffec2 	add	w2, w22, #0xfff
	res = vm_set_prot(uctx, code_addr,
 1103984:	92744c42 	and	x2, x2, #0xfffff000
 1103988:	aa1403e0 	mov	x0, x20
 110398c:	52805003 	mov	w3, #0x280                 	// #640
 1103990:	94005a50 	bl	111a2d0 <vm_set_prot>
 1103994:	2a0003f3 	mov	w19, w0
			  TEE_MATTR_URX);
	if (res)
 1103998:	35000140 	cbnz	w0, 11039c0 <ldelf_load_ldelf+0x12c>
		return res;

	DMSG("ldelf load address %#"PRIxVA, code_addr);
 110399c:	f9402be5 	ldr	x5, [sp, #80]
 11039a0:	d0000264 	adrp	x4, 1151000 <small_prime+0x168>
 11039a4:	d0000260 	adrp	x0, 1151000 <small_prime+0x168>
 11039a8:	91070884 	add	x4, x4, #0x1c2
 11039ac:	910b2400 	add	x0, x0, #0x2c9
 11039b0:	52800023 	mov	w3, #0x1                   	// #1
 11039b4:	52800062 	mov	w2, #0x3                   	// #3
 11039b8:	52800b61 	mov	w1, #0x5b                  	// #91
 11039bc:	940104e2 	bl	1144d44 <trace_printf>

	return TEE_SUCCESS;
}
 11039c0:	2a1303e0 	mov	w0, w19
 11039c4:	a94153f3 	ldp	x19, x20, [sp, #16]
 11039c8:	a9425bf5 	ldp	x21, x22, [sp, #32]
 11039cc:	a94363f7 	ldp	x23, x24, [sp, #48]
 11039d0:	a8c67bfd 	ldp	x29, x30, [sp], #96
 11039d4:	d65f03c0 	ret

00000000011039d8 <ldelf_init_with_ldelf>:

TEE_Result ldelf_init_with_ldelf(struct ts_session *sess,
				 struct user_mode_ctx *uctx)
{
 11039d8:	d10183ff 	sub	sp, sp, #0x60
	uaddr_t usr_stack = 0;

	usr_stack = uctx->ldelf_stack_ptr;
	usr_stack -= ROUNDUP(sizeof(*arg), STACK_ALIGNMENT);
	arg = (struct ldelf_arg *)usr_stack;
	memset(arg, 0, sizeof(*arg));
 11039dc:	d2800902 	mov	x2, #0x48                  	// #72
{
 11039e0:	a9017bfd 	stp	x29, x30, [sp, #16]
 11039e4:	910043fd 	add	x29, sp, #0x10
 11039e8:	a9035bf5 	stp	x21, x22, [sp, #48]
 11039ec:	aa0003f6 	mov	x22, x0
	usr_stack = uctx->ldelf_stack_ptr;
 11039f0:	f9413035 	ldr	x21, [x1, #608]
{
 11039f4:	a90253f3 	stp	x19, x20, [sp, #32]
 11039f8:	aa0103f3 	mov	x19, x1
 11039fc:	f90023f7 	str	x23, [sp, #64]
	usr_stack -= ROUNDUP(sizeof(*arg), STACK_ALIGNMENT);
 1103a00:	d10202b7 	sub	x23, x21, #0x80
	memset(arg, 0, sizeof(*arg));
 1103a04:	52800001 	mov	w1, #0x0                   	// #0
 1103a08:	aa1703e0 	mov	x0, x23
	uint32_t panicked = 0;
 1103a0c:	290b7fff 	stp	wzr, wzr, [sp, #88]
	memset(arg, 0, sizeof(*arg));
 1103a10:	940100b4 	bl	1143ce0 <memset>
	arg->uuid = uctx->ts_ctx->uuid;
 1103a14:	f9412260 	ldr	x0, [x19, #576]
	sess->handle_svc = ldelf_handle_svc;

	res = thread_enter_user_mode((vaddr_t)arg, 0, 0, 0,
 1103a18:	910173e7 	add	x7, sp, #0x5c
 1103a1c:	f9412665 	ldr	x5, [x19, #584]
 1103a20:	aa1703e4 	mov	x4, x23
	arg->uuid = uctx->ts_ctx->uuid;
 1103a24:	a9400001 	ldp	x1, x0, [x0]
 1103a28:	a93802a1 	stp	x1, x0, [x21, #-128]
	res = thread_enter_user_mode((vaddr_t)arg, 0, 0, 0,
 1103a2c:	52800006 	mov	w6, #0x0                   	// #0
 1103a30:	d2800003 	mov	x3, #0x0                   	// #0
 1103a34:	d2800002 	mov	x2, #0x0                   	// #0
	sess->handle_svc = ldelf_handle_svc;
 1103a38:	f00002a0 	adrp	x0, 115a000 <__scattered_array_1phys_mem_map+0x8>
	res = thread_enter_user_mode((vaddr_t)arg, 0, 0, 0,
 1103a3c:	d2800001 	mov	x1, #0x0                   	// #0
	sess->handle_svc = ldelf_handle_svc;
 1103a40:	f9419800 	ldr	x0, [x0, #816]
 1103a44:	f90012c0 	str	x0, [x22, #32]
	res = thread_enter_user_mode((vaddr_t)arg, 0, 0, 0,
 1103a48:	910163e0 	add	x0, sp, #0x58
 1103a4c:	f90003e0 	str	x0, [sp]
 1103a50:	aa1703e0 	mov	x0, x23
 1103a54:	940009cf 	bl	1106190 <thread_enter_user_mode>
 1103a58:	2a0003f4 	mov	w20, w0
				     usr_stack, uctx->entry_func,
				     is_arm32, &panicked, &panic_code);

	sess->handle_svc = sess->ctx->ops->handle_svc;
 1103a5c:	f9400ac0 	ldr	x0, [x22, #16]
 1103a60:	f9400800 	ldr	x0, [x0, #16]
 1103a64:	f9401c00 	ldr	x0, [x0, #56]
 1103a68:	f90012c0 	str	x0, [x22, #32]
	thread_user_clear_vfp(uctx);
 1103a6c:	aa1303e0 	mov	x0, x19
 1103a70:	940009b5 	bl	1106144 <thread_user_clear_vfp>
	ldelf_sess_cleanup(sess);
 1103a74:	aa1603e0 	mov	x0, x22
 1103a78:	94003de7 	bl	1113214 <ldelf_sess_cleanup>

	if (panicked) {
 1103a7c:	b9405fe0 	ldr	w0, [sp, #92]
 1103a80:	34000240 	cbz	w0, 1103ac8 <ldelf_init_with_ldelf+0xf0>
		abort_print_current_ts();
		EMSG("ldelf panicked");
		return TEE_ERROR_GENERIC;
 1103a84:	52bffff4 	mov	w20, #0xffff0000            	// #-65536
		abort_print_current_ts();
 1103a88:	94000f17 	bl	11076e4 <abort_print_current_ts>
		EMSG("ldelf panicked");
 1103a8c:	d0000264 	adrp	x4, 1151000 <small_prime+0x168>
 1103a90:	52800023 	mov	w3, #0x1                   	// #1
 1103a94:	91076884 	add	x4, x4, #0x1da
 1103a98:	52800022 	mov	w2, #0x1                   	// #1
 1103a9c:	52800f41 	mov	w1, #0x7a                  	// #122
 1103aa0:	d0000260 	adrp	x0, 1151000 <small_prime+0x168>
 1103aa4:	910b6800 	add	x0, x0, #0x2da
 1103aa8:	940104a7 	bl	1144d44 <trace_printf>
	sess->fbuf = arg->fbuf;
#endif
	uctx->dl_entry_func = arg->dl_entry;

	return TEE_SUCCESS;
}
 1103aac:	2a1403e0 	mov	w0, w20
 1103ab0:	a9417bfd 	ldp	x29, x30, [sp, #16]
 1103ab4:	a94253f3 	ldp	x19, x20, [sp, #32]
 1103ab8:	a9435bf5 	ldp	x21, x22, [sp, #48]
 1103abc:	f94023f7 	ldr	x23, [sp, #64]
 1103ac0:	910183ff 	add	sp, sp, #0x60
 1103ac4:	d65f03c0 	ret
	if (res) {
 1103ac8:	34000174 	cbz	w20, 1103af4 <ldelf_init_with_ldelf+0x11c>
		EMSG("ldelf failed with res: %#"PRIx32, res);
 1103acc:	2a1403e5 	mov	w5, w20
 1103ad0:	d0000264 	adrp	x4, 1151000 <small_prime+0x168>
 1103ad4:	52800023 	mov	w3, #0x1                   	// #1
 1103ad8:	9107a484 	add	x4, x4, #0x1e9
 1103adc:	52800022 	mov	w2, #0x1                   	// #1
 1103ae0:	52800fc1 	mov	w1, #0x7e                  	// #126
 1103ae4:	d0000260 	adrp	x0, 1151000 <small_prime+0x168>
 1103ae8:	910b6800 	add	x0, x0, #0x2da
 1103aec:	94010496 	bl	1144d44 <trace_printf>
		return res;
 1103af0:	17ffffef 	b	1103aac <ldelf_init_with_ldelf+0xd4>
	res = vm_check_access_rights(uctx,
 1103af4:	aa1703e2 	mov	x2, x23
 1103af8:	aa1303e0 	mov	x0, x19
 1103afc:	d2800903 	mov	x3, #0x48                  	// #72
 1103b00:	528000a1 	mov	w1, #0x5                   	// #5
 1103b04:	9400573a 	bl	11197ec <vm_check_access_rights>
 1103b08:	2a0003f4 	mov	w20, w0
	if (res)
 1103b0c:	35fffd00 	cbnz	w0, 1103aac <ldelf_init_with_ldelf+0xd4>
	if (is_user_ta_ctx(uctx->ts_ctx)) {
 1103b10:	f9412260 	ldr	x0, [x19, #576]
 1103b14:	940049b6 	bl	11161ec <is_user_ta_ctx>
 1103b18:	72001c1f 	tst	w0, #0xff
 1103b1c:	54000280 	b.eq	1103b6c <ldelf_init_with_ldelf+0x194>  // b.none
		if (arg->flags & ~TA_FLAGS_MASK)
 1103b20:	b85942a0 	ldur	w0, [x21, #-108]
 1103b24:	7215501f 	tst	w0, #0xfffff800
 1103b28:	540003c1 	b.ne	1103ba0 <ldelf_init_with_ldelf+0x1c8>  // b.any
		to_user_ta_ctx(uctx->ts_ctx)->ta_ctx.flags = arg->flags;
 1103b2c:	f9412276 	ldr	x22, [x19, #576]
}
#endif

static inline struct user_ta_ctx *to_user_ta_ctx(struct ts_ctx *ctx)
{
	assert(is_user_ta_ctx(ctx));
 1103b30:	aa1603e0 	mov	x0, x22
 1103b34:	940049ae 	bl	11161ec <is_user_ta_ctx>
 1103b38:	72001c1f 	tst	w0, #0xff
 1103b3c:	54000141 	b.ne	1103b64 <ldelf_init_with_ldelf+0x18c>  // b.any
 1103b40:	d0000263 	adrp	x3, 1151000 <small_prime+0x168>
 1103b44:	d0000261 	adrp	x1, 1151000 <small_prime+0x168>
 1103b48:	910ae863 	add	x3, x3, #0x2ba
 1103b4c:	91081021 	add	x1, x1, #0x204
 1103b50:	d0000260 	adrp	x0, 1151000 <small_prime+0x168>
 1103b54:	91088800 	add	x0, x0, #0x222
 1103b58:	52800702 	mov	w2, #0x38                  	// #56
 1103b5c:	940039d4 	bl	11122ac <_assert_log>
 1103b60:	940039e4 	bl	11122f0 <_assert_break>
 1103b64:	b85942a0 	ldur	w0, [x21, #-108]
 1103b68:	b81e82c0 	stur	w0, [x22, #-24]
	uctx->is_32bit = arg->is_32bit;
 1103b6c:	b85902a0 	ldur	w0, [x21, #-112]
 1103b70:	7100001f 	cmp	w0, #0x0
 1103b74:	1a9f07e0 	cset	w0, ne  // ne = any
 1103b78:	3909a260 	strb	w0, [x19, #616]
	uctx->entry_func = arg->entry_func;
 1103b7c:	f85982a0 	ldur	x0, [x21, #-104]
 1103b80:	f9012660 	str	x0, [x19, #584]
	uctx->stack_ptr = arg->stack_ptr;
 1103b84:	f85a02a0 	ldur	x0, [x21, #-96]
 1103b88:	f9013a60 	str	x0, [x19, #624]
	uctx->dump_entry_func = arg->dump_entry;
 1103b8c:	f85a82a0 	ldur	x0, [x21, #-88]
 1103b90:	f9012a60 	str	x0, [x19, #592]
	uctx->dl_entry_func = arg->dl_entry;
 1103b94:	f85b82a0 	ldur	x0, [x21, #-72]
 1103b98:	f9012e60 	str	x0, [x19, #600]
	return TEE_SUCCESS;
 1103b9c:	17ffffc4 	b	1103aac <ldelf_init_with_ldelf+0xd4>
			return TEE_ERROR_BAD_FORMAT;
 1103ba0:	129fff54 	mov	w20, #0xffff0005            	// #-65531
 1103ba4:	17ffffc2 	b	1103aac <ldelf_init_with_ldelf+0xd4>

0000000001103ba8 <ldelf_dump_state>:

TEE_Result ldelf_dump_state(struct user_mode_ctx *uctx)
{
 1103ba8:	d10183ff 	sub	sp, sp, #0x60
 1103bac:	a9017bfd 	stp	x29, x30, [sp, #16]
 1103bb0:	910043fd 	add	x29, sp, #0x10
 1103bb4:	a9035bf5 	stp	x21, x22, [sp, #48]
 1103bb8:	aa0003f6 	mov	x22, x0
 1103bbc:	a90253f3 	stp	x19, x20, [sp, #32]
 1103bc0:	a90463f7 	stp	x23, x24, [sp, #64]
	uint32_t panic_code = 0;
	uint32_t panicked = 0;
	struct thread_specific_data *tsd = thread_get_tsd();
	struct ts_session *sess = NULL;
	struct vm_region *r = NULL;
	size_t n = 0;
 1103bc4:	d2800017 	mov	x23, #0x0                   	// #0
	uint32_t panicked = 0;
 1103bc8:	290b7fff 	stp	wzr, wzr, [sp, #88]
	struct thread_specific_data *tsd = thread_get_tsd();
 1103bcc:	940007fd 	bl	1105bc0 <thread_get_tsd>
 1103bd0:	aa0003f4 	mov	x20, x0

	TAILQ_FOREACH(r, &uctx->vm_info.regions, link)
 1103bd4:	f94002c0 	ldr	x0, [x22]
 1103bd8:	b5000380 	cbnz	x0, 1103c48 <ldelf_dump_state+0xa0>
		if (r->attr & TEE_MATTR_URWX)
			n++;

	usr_stack = uctx->ldelf_stack_ptr;
	usr_stack -= ROUNDUP(sizeof(*arg) + n * sizeof(struct dump_map),
 1103bdc:	d37beaf8 	lsl	x24, x23, #5
			     STACK_ALIGNMENT);
	arg = (struct dump_entry_arg *)usr_stack;

	res = vm_check_access_rights(uctx,
 1103be0:	aa1603e0 	mov	x0, x22
	usr_stack -= ROUNDUP(sizeof(*arg) + n * sizeof(struct dump_map),
 1103be4:	91023f04 	add	x4, x24, #0x8f
	res = vm_check_access_rights(uctx,
 1103be8:	d2800a03 	mov	x3, #0x50                  	// #80
	usr_stack = uctx->ldelf_stack_ptr;
 1103bec:	f94132d3 	ldr	x19, [x22, #608]
	usr_stack -= ROUNDUP(sizeof(*arg) + n * sizeof(struct dump_map),
 1103bf0:	927ae484 	and	x4, x4, #0xffffffffffffffc0
	res = vm_check_access_rights(uctx,
 1103bf4:	528000a1 	mov	w1, #0x5                   	// #5
	usr_stack -= ROUNDUP(sizeof(*arg) + n * sizeof(struct dump_map),
 1103bf8:	cb040273 	sub	x19, x19, x4
	res = vm_check_access_rights(uctx,
 1103bfc:	aa1303e2 	mov	x2, x19
 1103c00:	940056fb 	bl	11197ec <vm_check_access_rights>
 1103c04:	2a0003f5 	mov	w21, w0
				     TEE_MEMORY_ACCESS_READ |
				     TEE_MEMORY_ACCESS_ANY_OWNER,
				     (uaddr_t)arg, sizeof(*arg));
	if (res) {
 1103c08:	340002c0 	cbz	w0, 1103c60 <ldelf_dump_state+0xb8>
		EMSG("ldelf stack is inaccessible!");
 1103c0c:	d0000264 	adrp	x4, 1151000 <small_prime+0x168>
 1103c10:	d0000260 	adrp	x0, 1151000 <small_prime+0x168>
 1103c14:	9108d884 	add	x4, x4, #0x236
 1103c18:	910bc000 	add	x0, x0, #0x2f0
 1103c1c:	52800023 	mov	w3, #0x1                   	// #1
 1103c20:	52800022 	mov	w2, #0x1                   	// #1
 1103c24:	52801761 	mov	w1, #0xbb                  	// #187
 1103c28:	94010447 	bl	1144d44 <trace_printf>
		abort_print_current_ts();
		res = TEE_ERROR_TARGET_DEAD;
	}

	return res;
}
 1103c2c:	2a1503e0 	mov	w0, w21
 1103c30:	a9417bfd 	ldp	x29, x30, [sp, #16]
 1103c34:	a94253f3 	ldp	x19, x20, [sp, #32]
 1103c38:	a9435bf5 	ldp	x21, x22, [sp, #48]
 1103c3c:	a94463f7 	ldp	x23, x24, [sp, #64]
 1103c40:	910183ff 	add	sp, sp, #0x60
 1103c44:	d65f03c0 	ret
		if (r->attr & TEE_MATTR_URWX)
 1103c48:	79404001 	ldrh	w1, [x0, #32]
	TAILQ_FOREACH(r, &uctx->vm_info.regions, link)
 1103c4c:	f9401400 	ldr	x0, [x0, #40]
		if (r->attr & TEE_MATTR_URWX)
 1103c50:	7219083f 	tst	w1, #0x380
			n++;
 1103c54:	9a9f07e1 	cset	x1, ne  // ne = any
 1103c58:	8b0102f7 	add	x23, x23, x1
	TAILQ_FOREACH(r, &uctx->vm_info.regions, link)
 1103c5c:	17ffffdf 	b	1103bd8 <ldelf_dump_state+0x30>
	memset(arg, 0, sizeof(*arg) + n * sizeof(struct dump_map));
 1103c60:	91014302 	add	x2, x24, #0x50
 1103c64:	aa1303e0 	mov	x0, x19
 1103c68:	52800001 	mov	w1, #0x0                   	// #0
 1103c6c:	9401001d 	bl	1143ce0 <memset>
	arg->num_maps = n;
 1103c70:	f9002677 	str	x23, [x19, #72]
	n = 0;
 1103c74:	d2800018 	mov	x24, #0x0                   	// #0
	TAILQ_FOREACH(r, &uctx->vm_info.regions, link) {
 1103c78:	f94002d7 	ldr	x23, [x22]
 1103c7c:	b5000957 	cbnz	x23, 1103da4 <ldelf_dump_state+0x1fc>
	arg->is_arm32 = uctx->is_32bit;
 1103c80:	3949a2c1 	ldrb	w1, [x22, #616]
 1103c84:	39010261 	strb	w1, [x19, #64]
	if (uctx->is_32bit) {
 1103c88:	f9409a80 	ldr	x0, [x20, #304]
 1103c8c:	34000ee1 	cbz	w1, 1103e68 <ldelf_dump_state+0x2c0>
		arg->arm32.regs[0] = tsd->abort_regs.x0;
 1103c90:	f9401e81 	ldr	x1, [x20, #56]
 1103c94:	b9000261 	str	w1, [x19]
		arg->arm32.regs[1] = tsd->abort_regs.x1;
 1103c98:	f9402281 	ldr	x1, [x20, #64]
 1103c9c:	b9000661 	str	w1, [x19, #4]
		arg->arm32.regs[2] = tsd->abort_regs.x2;
 1103ca0:	f9402681 	ldr	x1, [x20, #72]
 1103ca4:	b9000a61 	str	w1, [x19, #8]
		arg->arm32.regs[3] = tsd->abort_regs.x3;
 1103ca8:	f9402a81 	ldr	x1, [x20, #80]
 1103cac:	b9000e61 	str	w1, [x19, #12]
		arg->arm32.regs[4] = tsd->abort_regs.x4;
 1103cb0:	f9402e81 	ldr	x1, [x20, #88]
 1103cb4:	b9001261 	str	w1, [x19, #16]
		arg->arm32.regs[5] = tsd->abort_regs.x5;
 1103cb8:	f9403281 	ldr	x1, [x20, #96]
 1103cbc:	b9001661 	str	w1, [x19, #20]
		arg->arm32.regs[6] = tsd->abort_regs.x6;
 1103cc0:	f9403681 	ldr	x1, [x20, #104]
 1103cc4:	b9001a61 	str	w1, [x19, #24]
		arg->arm32.regs[7] = tsd->abort_regs.x7;
 1103cc8:	f9403a81 	ldr	x1, [x20, #112]
 1103ccc:	b9001e61 	str	w1, [x19, #28]
		arg->arm32.regs[8] = tsd->abort_regs.x8;
 1103cd0:	f9403e81 	ldr	x1, [x20, #120]
 1103cd4:	b9002261 	str	w1, [x19, #32]
		arg->arm32.regs[9] = tsd->abort_regs.x9;
 1103cd8:	f9404281 	ldr	x1, [x20, #128]
 1103cdc:	b9002661 	str	w1, [x19, #36]
		arg->arm32.regs[10] = tsd->abort_regs.x10;
 1103ce0:	f9404681 	ldr	x1, [x20, #136]
 1103ce4:	b9002a61 	str	w1, [x19, #40]
		arg->arm32.regs[11] = tsd->abort_regs.x11;
 1103ce8:	f9404a81 	ldr	x1, [x20, #144]
 1103cec:	b9002e61 	str	w1, [x19, #44]
		arg->arm32.regs[12] = tsd->abort_regs.x12;
 1103cf0:	f9404e81 	ldr	x1, [x20, #152]
 1103cf4:	b9003261 	str	w1, [x19, #48]
		arg->arm32.regs[13] = tsd->abort_regs.x13; /*SP*/
 1103cf8:	f9405281 	ldr	x1, [x20, #160]
 1103cfc:	b9003661 	str	w1, [x19, #52]
		arg->arm32.regs[14] = tsd->abort_regs.x14; /*LR*/
 1103d00:	f9405681 	ldr	x1, [x20, #168]
		arg->arm32.regs[15] = tsd->abort_regs.elr; /*PC*/
 1103d04:	29070261 	stp	w1, w0, [x19, #56]
	sess = ts_get_current_session();
 1103d08:	94004336 	bl	11149e0 <ts_get_current_session>
 1103d0c:	aa0003f4 	mov	x20, x0
	sess->handle_svc = ldelf_handle_svc;
 1103d10:	f00002a0 	adrp	x0, 115a000 <__scattered_array_1phys_mem_map+0x8>
	res = thread_enter_user_mode((vaddr_t)arg, 0, 0, 0,
 1103d14:	910173e7 	add	x7, sp, #0x5c
 1103d18:	f9412ac5 	ldr	x5, [x22, #592]
 1103d1c:	aa1303e4 	mov	x4, x19
	sess->handle_svc = ldelf_handle_svc;
 1103d20:	f9419800 	ldr	x0, [x0, #816]
 1103d24:	f9001280 	str	x0, [x20, #32]
	res = thread_enter_user_mode((vaddr_t)arg, 0, 0, 0,
 1103d28:	910163e0 	add	x0, sp, #0x58
 1103d2c:	f90003e0 	str	x0, [sp]
 1103d30:	52800006 	mov	w6, #0x0                   	// #0
 1103d34:	d2800003 	mov	x3, #0x0                   	// #0
 1103d38:	d2800002 	mov	x2, #0x0                   	// #0
 1103d3c:	d2800001 	mov	x1, #0x0                   	// #0
 1103d40:	aa1303e0 	mov	x0, x19
 1103d44:	94000913 	bl	1106190 <thread_enter_user_mode>
 1103d48:	2a0003f5 	mov	w21, w0
	sess->handle_svc = sess->ctx->ops->handle_svc;
 1103d4c:	f9400a80 	ldr	x0, [x20, #16]
 1103d50:	f9400800 	ldr	x0, [x0, #16]
 1103d54:	f9401c00 	ldr	x0, [x0, #56]
 1103d58:	f9001280 	str	x0, [x20, #32]
	thread_user_clear_vfp(uctx);
 1103d5c:	aa1603e0 	mov	x0, x22
 1103d60:	940008f9 	bl	1106144 <thread_user_clear_vfp>
	ldelf_sess_cleanup(sess);
 1103d64:	aa1403e0 	mov	x0, x20
 1103d68:	94003d2b 	bl	1113214 <ldelf_sess_cleanup>
	if (panicked) {
 1103d6c:	b9405fe0 	ldr	w0, [sp, #92]
 1103d70:	34fff5e0 	cbz	w0, 1103c2c <ldelf_dump_state+0x84>
		EMSG("ldelf dump function panicked");
 1103d74:	d0000264 	adrp	x4, 1151000 <small_prime+0x168>
 1103d78:	d0000260 	adrp	x0, 1151000 <small_prime+0x168>
 1103d7c:	91094c84 	add	x4, x4, #0x253
 1103d80:	910bc000 	add	x0, x0, #0x2f0
 1103d84:	52800023 	mov	w3, #0x1                   	// #1
 1103d88:	52800022 	mov	w2, #0x1                   	// #1
 1103d8c:	52802261 	mov	w1, #0x113                 	// #275
		uctx->dump_entry_func = 0;
 1103d90:	f9012adf 	str	xzr, [x22, #592]
		res = TEE_ERROR_TARGET_DEAD;
 1103d94:	1299fb75 	mov	w21, #0xffff3024            	// #-53212
		EMSG("ldelf dump function panicked");
 1103d98:	940103eb 	bl	1144d44 <trace_printf>
		abort_print_current_ts();
 1103d9c:	94000e52 	bl	11076e4 <abort_print_current_ts>
		res = TEE_ERROR_TARGET_DEAD;
 1103da0:	17ffffa3 	b	1103c2c <ldelf_dump_state+0x84>
		if (r->attr & TEE_MATTR_URWX) {
 1103da4:	794042e0 	ldrh	w0, [x23, #32]
 1103da8:	7219081f 	tst	w0, #0x380
 1103dac:	540005a0 	b.eq	1103e60 <ldelf_dump_state+0x2b8>  // b.none
			if (r->mobj)
 1103db0:	f94002e0 	ldr	x0, [x23]
 1103db4:	d37beb15 	lsl	x21, x24, #5
 1103db8:	b4000140 	cbz	x0, 1103de0 <ldelf_dump_state+0x238>
	if (mobj && mobj->ops && mobj->ops->get_pa)
 1103dbc:	f9400001 	ldr	x1, [x0]
 1103dc0:	b4000101 	cbz	x1, 1103de0 <ldelf_dump_state+0x238>
 1103dc4:	f9400424 	ldr	x4, [x1, #8]
 1103dc8:	b40000c4 	cbz	x4, 1103de0 <ldelf_dump_state+0x238>
		return mobj->ops->get_pa(mobj, offs, granule, pa);
 1103dcc:	f94006e1 	ldr	x1, [x23, #8]
				mobj_get_pa(r->mobj, r->offset, 0,
 1103dd0:	910162a3 	add	x3, x21, #0x58
 1103dd4:	8b030263 	add	x3, x19, x3
 1103dd8:	d2800002 	mov	x2, #0x0                   	// #0
 1103ddc:	d63f0080 	blr	x4
			arg->maps[n].va = r->va;
 1103de0:	8b150261 	add	x1, x19, x21
 1103de4:	f9400ae0 	ldr	x0, [x23, #16]
 1103de8:	f9002820 	str	x0, [x1, #80]
			arg->maps[n].sz = r->size;
 1103dec:	f9400ee0 	ldr	x0, [x23, #24]
 1103df0:	f9003020 	str	x0, [x1, #96]
			if (r->attr & TEE_MATTR_UR)
 1103df4:	794042e0 	ldrh	w0, [x23, #32]
 1103df8:	36380080 	tbz	w0, #7, 1103e08 <ldelf_dump_state+0x260>
				arg->maps[n].flags |= DUMP_MAP_READ;
 1103dfc:	b9406822 	ldr	w2, [x1, #104]
 1103e00:	32000042 	orr	w2, w2, #0x1
 1103e04:	b9006822 	str	w2, [x1, #104]
			if (r->attr & TEE_MATTR_UW)
 1103e08:	36400080 	tbz	w0, #8, 1103e18 <ldelf_dump_state+0x270>
				arg->maps[n].flags |= DUMP_MAP_WRITE;
 1103e0c:	b9406822 	ldr	w2, [x1, #104]
 1103e10:	321f0042 	orr	w2, w2, #0x2
 1103e14:	b9006822 	str	w2, [x1, #104]
			if (r->attr & TEE_MATTR_UX)
 1103e18:	36480080 	tbz	w0, #9, 1103e28 <ldelf_dump_state+0x280>
				arg->maps[n].flags |= DUMP_MAP_EXEC;
 1103e1c:	b9406822 	ldr	w2, [x1, #104]
 1103e20:	321e0042 	orr	w2, w2, #0x4
 1103e24:	b9006822 	str	w2, [x1, #104]
			if (r->attr & TEE_MATTR_SECURE)
 1103e28:	36580080 	tbz	w0, #11, 1103e38 <ldelf_dump_state+0x290>
				arg->maps[n].flags |= DUMP_MAP_SECURE;
 1103e2c:	b9406820 	ldr	w0, [x1, #104]
 1103e30:	321d0000 	orr	w0, w0, #0x8
 1103e34:	b9006820 	str	w0, [x1, #104]
			if (r->flags & VM_FLAG_EPHEMERAL)
 1103e38:	794046e2 	ldrh	w2, [x23, #34]
 1103e3c:	36000082 	tbz	w2, #0, 1103e4c <ldelf_dump_state+0x2a4>
				arg->maps[n].flags |= DUMP_MAP_EPHEM;
 1103e40:	b9406820 	ldr	w0, [x1, #104]
 1103e44:	321c0000 	orr	w0, w0, #0x10
 1103e48:	b9006820 	str	w0, [x1, #104]
			if (r->flags & VM_FLAG_LDELF)
 1103e4c:	36180082 	tbz	w2, #3, 1103e5c <ldelf_dump_state+0x2b4>
				arg->maps[n].flags |= DUMP_MAP_LDELF;
 1103e50:	b9406820 	ldr	w0, [x1, #104]
 1103e54:	32190000 	orr	w0, w0, #0x80
 1103e58:	b9006820 	str	w0, [x1, #104]
			n++;
 1103e5c:	91000718 	add	x24, x24, #0x1
	TAILQ_FOREACH(r, &uctx->vm_info.regions, link) {
 1103e60:	f94016f7 	ldr	x23, [x23, #40]
 1103e64:	17ffff86 	b	1103c7c <ldelf_dump_state+0xd4>
		arg->arm64.fp = tsd->abort_regs.x29;
 1103e68:	f9409281 	ldr	x1, [x20, #288]
		arg->arm64.pc = tsd->abort_regs.elr;
 1103e6c:	f9000a60 	str	x0, [x19, #16]
		arg->arm64.sp = tsd->abort_regs.sp_el0;
 1103e70:	f940a280 	ldr	x0, [x20, #320]
		arg->arm64.fp = tsd->abort_regs.x29;
 1103e74:	f9000261 	str	x1, [x19]
		arg->arm64.sp = tsd->abort_regs.sp_el0;
 1103e78:	f9000660 	str	x0, [x19, #8]
 1103e7c:	17ffffa3 	b	1103d08 <ldelf_dump_state+0x160>

0000000001103e80 <ldelf_dlopen>:
}
#endif /*CFG_FTRACE_SUPPORT*/

TEE_Result ldelf_dlopen(struct user_mode_ctx *uctx, TEE_UUID *uuid,
			uint32_t flags)
{
 1103e80:	d10183ff 	sub	sp, sp, #0x60
 1103e84:	a9017bfd 	stp	x29, x30, [sp, #16]
 1103e88:	910043fd 	add	x29, sp, #0x10
 1103e8c:	a90253f3 	stp	x19, x20, [sp, #32]
 1103e90:	a9035bf5 	stp	x21, x22, [sp, #48]
 1103e94:	a90463f7 	stp	x23, x24, [sp, #64]
	uaddr_t usr_stack = uctx->ldelf_stack_ptr;
	TEE_Result res = TEE_ERROR_GENERIC;
	struct dl_entry_arg *arg = NULL;
	uint32_t panic_code = 0;
	uint32_t panicked = 0;
 1103e98:	290b7fff 	stp	wzr, wzr, [sp, #88]
	uaddr_t usr_stack = uctx->ldelf_stack_ptr;
 1103e9c:	f9413015 	ldr	x21, [x0, #608]
	struct ts_session *sess = NULL;

	assert(uuid);
 1103ea0:	b5000141 	cbnz	x1, 1103ec8 <ldelf_dlopen+0x48>
 1103ea4:	d0000263 	adrp	x3, 1151000 <small_prime+0x168>
 1103ea8:	d0000261 	adrp	x1, 1151000 <small_prime+0x168>
 1103eac:	910c0463 	add	x3, x3, #0x301
 1103eb0:	9109c021 	add	x1, x1, #0x270
 1103eb4:	d0000260 	adrp	x0, 1151000 <small_prime+0x168>
 1103eb8:	910a5000 	add	x0, x0, #0x294
 1103ebc:	52802ba2 	mov	w2, #0x15d                 	// #349
 1103ec0:	940038fb 	bl	11122ac <_assert_log>
 1103ec4:	9400390b 	bl	11122f0 <_assert_break>

	usr_stack -= ROUNDUP(sizeof(*arg), STACK_ALIGNMENT);
 1103ec8:	d10102b6 	sub	x22, x21, #0x40
 1103ecc:	aa0003f7 	mov	x23, x0
 1103ed0:	aa0103f4 	mov	x20, x1
 1103ed4:	2a0203f8 	mov	w24, w2
	arg = (struct dl_entry_arg *)usr_stack;

	res = vm_check_access_rights(uctx,
 1103ed8:	d2800403 	mov	x3, #0x20                  	// #32
 1103edc:	aa1603e2 	mov	x2, x22
 1103ee0:	528000e1 	mov	w1, #0x7                   	// #7
 1103ee4:	94005642 	bl	11197ec <vm_check_access_rights>
 1103ee8:	2a0003f3 	mov	w19, w0
				     TEE_MEMORY_ACCESS_READ |
				     TEE_MEMORY_ACCESS_WRITE |
				     TEE_MEMORY_ACCESS_ANY_OWNER,
				     (uaddr_t)arg, sizeof(*arg));
	if (res) {
 1103eec:	34000200 	cbz	w0, 1103f2c <ldelf_dlopen+0xac>
		EMSG("ldelf stack is inaccessible!");
 1103ef0:	d0000264 	adrp	x4, 1151000 <small_prime+0x168>
 1103ef4:	d0000260 	adrp	x0, 1151000 <small_prime+0x168>
 1103ef8:	9108d884 	add	x4, x4, #0x236
 1103efc:	910c0400 	add	x0, x0, #0x301
 1103f00:	52800023 	mov	w3, #0x1                   	// #1
 1103f04:	52800022 	mov	w2, #0x1                   	// #1
 1103f08:	52802d01 	mov	w1, #0x168                 	// #360
 1103f0c:	9401038e 	bl	1144d44 <trace_printf>
	}
	if (!res)
		res = arg->ret;

	return res;
}
 1103f10:	2a1303e0 	mov	w0, w19
 1103f14:	a9417bfd 	ldp	x29, x30, [sp, #16]
 1103f18:	a94253f3 	ldp	x19, x20, [sp, #32]
 1103f1c:	a9435bf5 	ldp	x21, x22, [sp, #48]
 1103f20:	a94463f7 	ldp	x23, x24, [sp, #64]
 1103f24:	910183ff 	add	sp, sp, #0x60
 1103f28:	d65f03c0 	ret
	memset(arg, 0, sizeof(*arg));
 1103f2c:	d2800402 	mov	x2, #0x20                  	// #32
 1103f30:	52800001 	mov	w1, #0x0                   	// #0
 1103f34:	aa1603e0 	mov	x0, x22
 1103f38:	9400ff6a 	bl	1143ce0 <memset>
	arg->cmd = LDELF_DL_ENTRY_DLOPEN;
 1103f3c:	b81c02bf 	stur	wzr, [x21, #-64]
	arg->dlopen.uuid = *uuid;
 1103f40:	aa1403e1 	mov	x1, x20
 1103f44:	d2800202 	mov	x2, #0x10                  	// #16
 1103f48:	910022c0 	add	x0, x22, #0x8
 1103f4c:	97fffd11 	bl	1103390 <memcpy>
	arg->dlopen.flags = flags;
 1103f50:	b81d82b8 	stur	w24, [x21, #-40]
	sess = ts_get_current_session();
 1103f54:	940042a3 	bl	11149e0 <ts_get_current_session>
 1103f58:	aa0003f4 	mov	x20, x0
	sess->handle_svc = ldelf_handle_svc;
 1103f5c:	f00002a0 	adrp	x0, 115a000 <__scattered_array_1phys_mem_map+0x8>
	res = thread_enter_user_mode((vaddr_t)arg, 0, 0, 0,
 1103f60:	910173e7 	add	x7, sp, #0x5c
 1103f64:	aa1603e4 	mov	x4, x22
 1103f68:	52800006 	mov	w6, #0x0                   	// #0
	sess->handle_svc = ldelf_handle_svc;
 1103f6c:	f9419800 	ldr	x0, [x0, #816]
 1103f70:	f9001280 	str	x0, [x20, #32]
	res = thread_enter_user_mode((vaddr_t)arg, 0, 0, 0,
 1103f74:	910163e0 	add	x0, sp, #0x58
 1103f78:	f90003e0 	str	x0, [sp]
 1103f7c:	d2800003 	mov	x3, #0x0                   	// #0
 1103f80:	d2800002 	mov	x2, #0x0                   	// #0
 1103f84:	f9412ee5 	ldr	x5, [x23, #600]
 1103f88:	d2800001 	mov	x1, #0x0                   	// #0
 1103f8c:	aa1603e0 	mov	x0, x22
 1103f90:	94000880 	bl	1106190 <thread_enter_user_mode>
 1103f94:	2a0003f3 	mov	w19, w0
	sess->handle_svc = sess->ctx->ops->handle_svc;
 1103f98:	f9400a80 	ldr	x0, [x20, #16]
 1103f9c:	f9400800 	ldr	x0, [x0, #16]
 1103fa0:	f9401c00 	ldr	x0, [x0, #56]
 1103fa4:	f9001280 	str	x0, [x20, #32]
	ldelf_sess_cleanup(sess);
 1103fa8:	aa1403e0 	mov	x0, x20
 1103fac:	94003c9a 	bl	1113214 <ldelf_sess_cleanup>
	if (panicked) {
 1103fb0:	b9405fe0 	ldr	w0, [sp, #92]
 1103fb4:	34000180 	cbz	w0, 1103fe4 <ldelf_dlopen+0x164>
		EMSG("ldelf dl_entry function panicked");
 1103fb8:	d0000264 	adrp	x4, 1151000 <small_prime+0x168>
 1103fbc:	d0000260 	adrp	x0, 1151000 <small_prime+0x168>
 1103fc0:	910a6484 	add	x4, x4, #0x299
 1103fc4:	910c0400 	add	x0, x0, #0x301
 1103fc8:	52800023 	mov	w3, #0x1                   	// #1
 1103fcc:	52800022 	mov	w2, #0x1                   	// #1
 1103fd0:	52802f81 	mov	w1, #0x17c                 	// #380
		res = TEE_ERROR_TARGET_DEAD;
 1103fd4:	1299fb73 	mov	w19, #0xffff3024            	// #-53212
		EMSG("ldelf dl_entry function panicked");
 1103fd8:	9401035b 	bl	1144d44 <trace_printf>
		abort_print_current_ts();
 1103fdc:	94000dc2 	bl	11076e4 <abort_print_current_ts>
	if (!res)
 1103fe0:	17ffffcc 	b	1103f10 <ldelf_dlopen+0x90>
 1103fe4:	35fff973 	cbnz	w19, 1103f10 <ldelf_dlopen+0x90>
		res = arg->ret;
 1103fe8:	b85c42b3 	ldur	w19, [x21, #-60]
 1103fec:	17ffffc9 	b	1103f10 <ldelf_dlopen+0x90>

0000000001103ff0 <ldelf_dlsym>:

TEE_Result ldelf_dlsym(struct user_mode_ctx *uctx, TEE_UUID *uuid,
		       const char *sym, size_t maxlen, vaddr_t *val)
{
 1103ff0:	d101c3ff 	sub	sp, sp, #0x70
 1103ff4:	a9017bfd 	stp	x29, x30, [sp, #16]
 1103ff8:	910043fd 	add	x29, sp, #0x10
 1103ffc:	a90253f3 	stp	x19, x20, [sp, #32]
 1104000:	aa0303f3 	mov	x19, x3
 1104004:	a9035bf5 	stp	x21, x22, [sp, #48]
 1104008:	aa0403f6 	mov	x22, x4
 110400c:	a90463f7 	stp	x23, x24, [sp, #64]
 1104010:	aa0003f7 	mov	x23, x0
 1104014:	aa0203f8 	mov	x24, x2
 1104018:	a9056bf9 	stp	x25, x26, [sp, #80]
 110401c:	aa0103f9 	mov	x25, x1
	uaddr_t usr_stack = uctx->ldelf_stack_ptr;
	TEE_Result res = TEE_ERROR_GENERIC;
	struct dl_entry_arg *arg = NULL;
	uint32_t panic_code = 0;
	uint32_t panicked = 0;
	size_t len = strnlen(sym, maxlen);
 1104020:	aa0303e1 	mov	x1, x3
	uint32_t panicked = 0;
 1104024:	290d7fff 	stp	wzr, wzr, [sp, #104]
	uaddr_t usr_stack = uctx->ldelf_stack_ptr;
 1104028:	f9413014 	ldr	x20, [x0, #608]
	size_t len = strnlen(sym, maxlen);
 110402c:	aa0203e0 	mov	x0, x2
 1104030:	9400ff51 	bl	1143d74 <strnlen>
	struct ts_session *sess = NULL;

	if (len == maxlen)
 1104034:	eb00027f 	cmp	x19, x0
 1104038:	54000ac0 	b.eq	1104190 <ldelf_dlsym+0x1a0>  // b.none
		return TEE_ERROR_BAD_PARAMETERS;

	usr_stack -= ROUNDUP(sizeof(*arg) + len + 1, STACK_ALIGNMENT);
 110403c:	91018004 	add	x4, x0, #0x60
	arg = (struct dl_entry_arg *)usr_stack;

	res = vm_check_access_rights(uctx,
 1104040:	91008403 	add	x3, x0, #0x21
	usr_stack -= ROUNDUP(sizeof(*arg) + len + 1, STACK_ALIGNMENT);
 1104044:	927ae484 	and	x4, x4, #0xffffffffffffffc0
 1104048:	aa0003f5 	mov	x21, x0
 110404c:	cb040294 	sub	x20, x20, x4
	res = vm_check_access_rights(uctx,
 1104050:	aa1703e0 	mov	x0, x23
 1104054:	aa1403e2 	mov	x2, x20
 1104058:	528000e1 	mov	w1, #0x7                   	// #7
 110405c:	940055e4 	bl	11197ec <vm_check_access_rights>
 1104060:	2a0003f3 	mov	w19, w0
				     TEE_MEMORY_ACCESS_READ |
				     TEE_MEMORY_ACCESS_WRITE |
				     TEE_MEMORY_ACCESS_ANY_OWNER,
				     (uaddr_t)arg, sizeof(*arg) + len + 1);
	if (res) {
 1104064:	34000220 	cbz	w0, 11040a8 <ldelf_dlsym+0xb8>
		EMSG("ldelf stack is inaccessible!");
 1104068:	b0000264 	adrp	x4, 1151000 <small_prime+0x168>
 110406c:	b0000260 	adrp	x0, 1151000 <small_prime+0x168>
 1104070:	9108d884 	add	x4, x4, #0x236
 1104074:	910c3800 	add	x0, x0, #0x30e
 1104078:	52800023 	mov	w3, #0x1                   	// #1
 110407c:	52800022 	mov	w2, #0x1                   	// #1
 1104080:	528033a1 	mov	w1, #0x19d                 	// #413
 1104084:	94010330 	bl	1144d44 <trace_printf>
		if (!res)
			*val = arg->dlsym.val;
	}

	return res;
}
 1104088:	2a1303e0 	mov	w0, w19
 110408c:	a9417bfd 	ldp	x29, x30, [sp, #16]
 1104090:	a94253f3 	ldp	x19, x20, [sp, #32]
 1104094:	a9435bf5 	ldp	x21, x22, [sp, #48]
 1104098:	a94463f7 	ldp	x23, x24, [sp, #64]
 110409c:	a9456bf9 	ldp	x25, x26, [sp, #80]
 11040a0:	9101c3ff 	add	sp, sp, #0x70
 11040a4:	d65f03c0 	ret
	memset(arg, 0, sizeof(*arg));
 11040a8:	d2800402 	mov	x2, #0x20                  	// #32
 11040ac:	52800001 	mov	w1, #0x0                   	// #0
 11040b0:	aa1403e0 	mov	x0, x20
 11040b4:	9400ff0b 	bl	1143ce0 <memset>
	arg->cmd = LDELF_DL_ENTRY_DLSYM;
 11040b8:	aa1403e0 	mov	x0, x20
 11040bc:	5280003a 	mov	w26, #0x1                   	// #1
	arg->dlsym.uuid = *uuid;
 11040c0:	aa1903e1 	mov	x1, x25
 11040c4:	d2800202 	mov	x2, #0x10                  	// #16
	arg->cmd = LDELF_DL_ENTRY_DLSYM;
 11040c8:	b800841a 	str	w26, [x0], #8
	arg->dlsym.uuid = *uuid;
 11040cc:	97fffcb1 	bl	1103390 <memcpy>
	memcpy(arg->dlsym.symbol, sym, len);
 11040d0:	aa1503e2 	mov	x2, x21
	arg->dlsym.symbol[len] = '\0';
 11040d4:	8b150295 	add	x21, x20, x21
	memcpy(arg->dlsym.symbol, sym, len);
 11040d8:	aa1803e1 	mov	x1, x24
 11040dc:	91008280 	add	x0, x20, #0x20
 11040e0:	97fffcac 	bl	1103390 <memcpy>
	arg->dlsym.symbol[len] = '\0';
 11040e4:	390082bf 	strb	wzr, [x21, #32]
	sess = ts_get_current_session();
 11040e8:	9400423e 	bl	11149e0 <ts_get_current_session>
 11040ec:	aa0003f5 	mov	x21, x0
	sess->handle_svc = ldelf_handle_svc;
 11040f0:	d00002a0 	adrp	x0, 115a000 <__scattered_array_1phys_mem_map+0x8>
	res = thread_enter_user_mode((vaddr_t)arg, 0, 0, 0,
 11040f4:	9101b3e7 	add	x7, sp, #0x6c
 11040f8:	f9412ee5 	ldr	x5, [x23, #600]
 11040fc:	aa1403e4 	mov	x4, x20
	sess->handle_svc = ldelf_handle_svc;
 1104100:	f9419800 	ldr	x0, [x0, #816]
 1104104:	f90012a0 	str	x0, [x21, #32]
	res = thread_enter_user_mode((vaddr_t)arg, 0, 0, 0,
 1104108:	9101a3e0 	add	x0, sp, #0x68
 110410c:	f90003e0 	str	x0, [sp]
 1104110:	52800006 	mov	w6, #0x0                   	// #0
 1104114:	d2800003 	mov	x3, #0x0                   	// #0
 1104118:	d2800002 	mov	x2, #0x0                   	// #0
 110411c:	d2800001 	mov	x1, #0x0                   	// #0
 1104120:	aa1403e0 	mov	x0, x20
 1104124:	9400081b 	bl	1106190 <thread_enter_user_mode>
 1104128:	2a0003f3 	mov	w19, w0
	sess->handle_svc = sess->ctx->ops->handle_svc;
 110412c:	f9400aa0 	ldr	x0, [x21, #16]
 1104130:	f9400800 	ldr	x0, [x0, #16]
 1104134:	f9401c00 	ldr	x0, [x0, #56]
 1104138:	f90012a0 	str	x0, [x21, #32]
	ldelf_sess_cleanup(sess);
 110413c:	aa1503e0 	mov	x0, x21
 1104140:	94003c35 	bl	1113214 <ldelf_sess_cleanup>
	if (panicked) {
 1104144:	b9406fe0 	ldr	w0, [sp, #108]
 1104148:	34000180 	cbz	w0, 1104178 <ldelf_dlsym+0x188>
		EMSG("ldelf dl_entry function panicked");
 110414c:	2a1a03e3 	mov	w3, w26
 1104150:	2a1a03e2 	mov	w2, w26
 1104154:	b0000264 	adrp	x4, 1151000 <small_prime+0x168>
 1104158:	b0000260 	adrp	x0, 1151000 <small_prime+0x168>
 110415c:	910a6484 	add	x4, x4, #0x299
 1104160:	910c3800 	add	x0, x0, #0x30e
 1104164:	52803641 	mov	w1, #0x1b2                 	// #434
		res = TEE_ERROR_TARGET_DEAD;
 1104168:	1299fb73 	mov	w19, #0xffff3024            	// #-53212
		EMSG("ldelf dl_entry function panicked");
 110416c:	940102f6 	bl	1144d44 <trace_printf>
		abort_print_current_ts();
 1104170:	94000d5d 	bl	11076e4 <abort_print_current_ts>
	if (!res) {
 1104174:	17ffffc5 	b	1104088 <ldelf_dlsym+0x98>
 1104178:	35fff893 	cbnz	w19, 1104088 <ldelf_dlsym+0x98>
		res = arg->ret;
 110417c:	b9400693 	ldr	w19, [x20, #4]
		if (!res)
 1104180:	35fff853 	cbnz	w19, 1104088 <ldelf_dlsym+0x98>
			*val = arg->dlsym.val;
 1104184:	f9400e80 	ldr	x0, [x20, #24]
 1104188:	f90002c0 	str	x0, [x22]
 110418c:	17ffffbf 	b	1104088 <ldelf_dlsym+0x98>
		return TEE_ERROR_BAD_PARAMETERS;
 1104190:	129fff33 	mov	w19, #0xffff0006            	// #-65530
 1104194:	17ffffbd 	b	1104088 <ldelf_dlsym+0x98>

0000000001104198 <register_time_source>:
#include <string.h>

struct time_source _time_source;

static TEE_Result register_time_source(void)
{
 1104198:	a9bf7bfd 	stp	x29, x30, [sp, #-16]!
 110419c:	910003fd 	mov	x29, sp
	time_source_init();
 11041a0:	9400006e 	bl	1104358 <time_source_init>

	return TEE_SUCCESS;
}
 11041a4:	52800000 	mov	w0, #0x0                   	// #0
 11041a8:	a8c17bfd 	ldp	x29, x30, [sp], #16
 11041ac:	d65f03c0 	ret

00000000011041b0 <tee_time_get_sys_time>:
early_init(register_time_source);

TEE_Result tee_time_get_sys_time(TEE_Time *time)
{
	return _time_source.get_sys_time(time);
 11041b0:	d00002a1 	adrp	x1, 115a000 <__scattered_array_1phys_mem_map+0x8>
 11041b4:	f9417021 	ldr	x1, [x1, #736]
 11041b8:	f9400821 	ldr	x1, [x1, #16]
 11041bc:	aa0103f0 	mov	x16, x1
 11041c0:	d61f0200 	br	x16

00000000011041c4 <tee_time_get_sys_time_protection_level>:
}

uint32_t tee_time_get_sys_time_protection_level(void)
{
	return _time_source.protection_level;
 11041c4:	d00002a0 	adrp	x0, 115a000 <__scattered_array_1phys_mem_map+0x8>
}
 11041c8:	f9417000 	ldr	x0, [x0, #736]
 11041cc:	b9400800 	ldr	w0, [x0, #8]
 11041d0:	d65f03c0 	ret

00000000011041d4 <tee_time_wait>:

void tee_time_wait(uint32_t milliseconds_delay)
{
 11041d4:	a9bd7bfd 	stp	x29, x30, [sp, #-48]!
	struct thread_param params =
 11041d8:	2a0003e0 	mov	w0, w0
 11041dc:	52800021 	mov	w1, #0x1                   	// #1
{
 11041e0:	910003fd 	mov	x29, sp
		THREAD_PARAM_VALUE(IN, milliseconds_delay, 0, 0);

	thread_rpc_cmd(OPTEE_RPC_CMD_SUSPEND, 1, &params);
 11041e4:	910043e2 	add	x2, sp, #0x10
	struct thread_param params =
 11041e8:	b90013e1 	str	w1, [sp, #16]
	thread_rpc_cmd(OPTEE_RPC_CMD_SUSPEND, 1, &params);
 11041ec:	d2800021 	mov	x1, #0x1                   	// #1
	struct thread_param params =
 11041f0:	a901ffe0 	stp	x0, xzr, [sp, #24]
	thread_rpc_cmd(OPTEE_RPC_CMD_SUSPEND, 1, &params);
 11041f4:	528000a0 	mov	w0, #0x5                   	// #5
	struct thread_param params =
 11041f8:	f90017ff 	str	xzr, [sp, #40]
	thread_rpc_cmd(OPTEE_RPC_CMD_SUSPEND, 1, &params);
 11041fc:	94000b58 	bl	1106f5c <thread_rpc_cmd>
}
 1104200:	a8c37bfd 	ldp	x29, x30, [sp], #48
 1104204:	d65f03c0 	ret

0000000001104208 <tee_time_get_ree_time>:
 */
TEE_Result tee_time_get_ree_time(TEE_Time *time)
{
	TEE_Result res;

	if (!time)
 1104208:	b4000300 	cbz	x0, 1104268 <tee_time_get_ree_time+0x60>
{
 110420c:	a9bc7bfd 	stp	x29, x30, [sp, #-64]!
		return TEE_ERROR_BAD_PARAMETERS;

	struct thread_param params = THREAD_PARAM_VALUE(OUT, 0, 0, 0);

	res = thread_rpc_cmd(OPTEE_RPC_CMD_GET_TIME, 1, &params);
 1104210:	d2800021 	mov	x1, #0x1                   	// #1
{
 1104214:	910003fd 	mov	x29, sp
 1104218:	f9000bf3 	str	x19, [sp, #16]
 110421c:	aa0003f3 	mov	x19, x0
	struct thread_param params = THREAD_PARAM_VALUE(OUT, 0, 0, 0);
 1104220:	52800040 	mov	w0, #0x2                   	// #2
	res = thread_rpc_cmd(OPTEE_RPC_CMD_GET_TIME, 1, &params);
 1104224:	910083e2 	add	x2, sp, #0x20
	struct thread_param params = THREAD_PARAM_VALUE(OUT, 0, 0, 0);
 1104228:	b90023e0 	str	w0, [sp, #32]
	res = thread_rpc_cmd(OPTEE_RPC_CMD_GET_TIME, 1, &params);
 110422c:	52800060 	mov	w0, #0x3                   	// #3
	struct thread_param params = THREAD_PARAM_VALUE(OUT, 0, 0, 0);
 1104230:	a902ffff 	stp	xzr, xzr, [sp, #40]
 1104234:	f9001fff 	str	xzr, [sp, #56]
	res = thread_rpc_cmd(OPTEE_RPC_CMD_GET_TIME, 1, &params);
 1104238:	94000b49 	bl	1106f5c <thread_rpc_cmd>
	if (res == TEE_SUCCESS) {
 110423c:	35000100 	cbnz	w0, 110425c <tee_time_get_ree_time+0x54>
		time->seconds = params.u.value.a;
 1104240:	f94017e1 	ldr	x1, [sp, #40]
 1104244:	b9000261 	str	w1, [x19]
		time->millis = params.u.value.b / 1000000;
 1104248:	f9401be1 	ldr	x1, [sp, #48]
 110424c:	d2884802 	mov	x2, #0x4240                	// #16960
 1104250:	f2a001e2 	movk	x2, #0xf, lsl #16
 1104254:	9ac20821 	udiv	x1, x1, x2
 1104258:	b9000661 	str	w1, [x19, #4]
	}

	return res;
}
 110425c:	f9400bf3 	ldr	x19, [sp, #16]
 1104260:	a8c47bfd 	ldp	x29, x30, [sp], #64
 1104264:	d65f03c0 	ret
		return TEE_ERROR_BAD_PARAMETERS;
 1104268:	129fff20 	mov	w0, #0xffff0006            	// #-65530
}
 110426c:	d65f03c0 	ret

0000000001104270 <tee_otp_get_hw_unique_key>:
 *
 * The default implementation just sets it to a constant.
 */

__weak TEE_Result tee_otp_get_hw_unique_key(struct tee_hw_unique_key *hwkey)
{
 1104270:	a9bf7bfd 	stp	x29, x30, [sp, #-16]!
	memset(&hwkey->data[0], 0, sizeof(hwkey->data));
 1104274:	d2800202 	mov	x2, #0x10                  	// #16
 1104278:	52800001 	mov	w1, #0x0                   	// #0
{
 110427c:	910003fd 	mov	x29, sp
	memset(&hwkey->data[0], 0, sizeof(hwkey->data));
 1104280:	9400fe98 	bl	1143ce0 <memset>
	return TEE_SUCCESS;
}
 1104284:	52800000 	mov	w0, #0x0                   	// #0
 1104288:	a8c17bfd 	ldp	x29, x30, [sp], #16
 110428c:	d65f03c0 	ret

0000000001104290 <tee_otp_get_die_id>:

__weak int tee_otp_get_die_id(uint8_t *buffer, size_t len)
{
 1104290:	a9bf7bfd 	stp	x29, x30, [sp, #-16]!
	if (huk_subkey_derive(HUK_SUBKEY_DIE_ID, NULL, 0, buffer, len))
 1104294:	aa0103e4 	mov	x4, x1
 1104298:	aa0003e3 	mov	x3, x0
{
 110429c:	910003fd 	mov	x29, sp
	if (huk_subkey_derive(HUK_SUBKEY_DIE_ID, NULL, 0, buffer, len))
 11042a0:	d2800002 	mov	x2, #0x0                   	// #0
 11042a4:	d2800001 	mov	x1, #0x0                   	// #0
 11042a8:	52800040 	mov	w0, #0x2                   	// #2
 11042ac:	940041e2 	bl	1114a34 <huk_subkey_derive>
 11042b0:	7100001f 	cmp	w0, #0x0
		return -1;

	return 0;
}
 11042b4:	5a9f03e0 	csetm	w0, ne  // ne = any
 11042b8:	a8c17bfd 	ldp	x29, x30, [sp], #16
 11042bc:	d65f03c0 	ret

00000000011042c0 <tee_otp_get_ta_enc_key>:
 *
 * The default implementation chooses option (1).
 */
__weak TEE_Result tee_otp_get_ta_enc_key(uint32_t key_type __maybe_unused,
					 uint8_t *buffer, size_t len)
{
 11042c0:	a9bf7bfd 	stp	x29, x30, [sp, #-16]!
 11042c4:	910003fd 	mov	x29, sp
	assert(key_type == SHDR_ENC_KEY_DEV_SPECIFIC);
 11042c8:	34000140 	cbz	w0, 11042f0 <tee_otp_get_ta_enc_key+0x30>
 11042cc:	b0000263 	adrp	x3, 1151000 <small_prime+0x168>
 11042d0:	b0000261 	adrp	x1, 1151000 <small_prime+0x168>
 11042d4:	910dd863 	add	x3, x3, #0x376
 11042d8:	910cbc21 	add	x1, x1, #0x32f
 11042dc:	b0000260 	adrp	x0, 1151000 <small_prime+0x168>
 11042e0:	910d4000 	add	x0, x0, #0x350
 11042e4:	528005e2 	mov	w2, #0x2f                  	// #47
 11042e8:	940037f1 	bl	11122ac <_assert_log>
 11042ec:	94003801 	bl	11122f0 <_assert_break>
 11042f0:	aa0103e3 	mov	x3, x1

	if (huk_subkey_derive(HUK_SUBKEY_TA_ENC, ta_pub_key_modulus,
 11042f4:	d00002a1 	adrp	x1, 115a000 <__scattered_array_1phys_mem_map+0x8>
 11042f8:	aa0203e4 	mov	x4, x2
 11042fc:	f9419020 	ldr	x0, [x1, #800]
 1104300:	f941f421 	ldr	x1, [x1, #1000]
 1104304:	f9400002 	ldr	x2, [x0]
 1104308:	52800080 	mov	w0, #0x4                   	// #4
 110430c:	940041ca 	bl	1114a34 <huk_subkey_derive>
			      ta_pub_key_modulus_size, buffer, len))
		return TEE_ERROR_SECURITY;
 1104310:	7100001f 	cmp	w0, #0x0

	return TEE_SUCCESS;
}
 1104314:	129ffe01 	mov	w1, #0xffff000f            	// #-65521
 1104318:	1a810000 	csel	w0, w0, w1, eq  // eq = none
 110431c:	a8c17bfd 	ldp	x29, x30, [sp], #16
 1104320:	d65f03c0 	ret

0000000001104324 <arm_cntpct_get_sys_time>:
#define TLBI_ASID_MASK		0xff

#ifndef __ASSEMBLER__
static inline __noprof void isb(void)
{
	asm volatile ("isb");
 1104324:	d5033fdf 	isb
DEFINE_U32_REG_READ_FUNC(contextidr_el1)
DEFINE_U32_REG_READ_FUNC(sctlr_el1)

/* ARM Generic timer functions */
DEFINE_REG_READ_FUNC_(cntfrq, uint32_t, cntfrq_el0)
DEFINE_REG_READ_FUNC_(cntpct, uint64_t, cntpct_el0)
 1104328:	d53be024 	mrs	x4, cntpct_el0
DEFINE_REG_READ_FUNC_(cntfrq, uint32_t, cntfrq_el0)
 110432c:	d53be002 	mrs	x2, cntfrq_el0
static TEE_Result arm_cntpct_get_sys_time(TEE_Time *time)
{
	uint64_t cntpct = barrier_read_cntpct();
	uint32_t cntfrq = read_cntfrq();

	time->seconds = cntpct / cntfrq;
 1104330:	92407c43 	and	x3, x2, #0xffffffff
 1104334:	9ac30881 	udiv	x1, x4, x3
 1104338:	b9000001 	str	w1, [x0]
	time->millis = (cntpct % cntfrq) / (cntfrq / TEE_TIME_MILLIS_BASE);
 110433c:	9b039021 	msub	x1, x1, x3, x4
 1104340:	52807d03 	mov	w3, #0x3e8                 	// #1000
 1104344:	1ac30842 	udiv	w2, w2, w3
 1104348:	9ac20821 	udiv	x1, x1, x2
 110434c:	b9000401 	str	w1, [x0, #4]

	return TEE_SUCCESS;
}
 1104350:	52800000 	mov	w0, #0x0                   	// #0
 1104354:	d65f03c0 	ret

0000000001104358 <time_source_init>:
	.name = "arm cntpct",
	.protection_level = 1000,
	.get_sys_time = arm_cntpct_get_sys_time,
};

REGISTER_TIME_SOURCE(arm_cntpct_time_source)
 1104358:	d00002a0 	adrp	x0, 115a000 <__scattered_array_1phys_mem_map+0x8>
 110435c:	b0000261 	adrp	x1, 1151000 <small_prime+0x168>
 1104360:	910e3421 	add	x1, x1, #0x38d
 1104364:	f9417000 	ldr	x0, [x0, #736]
 1104368:	f9000001 	str	x1, [x0]
 110436c:	52807d01 	mov	w1, #0x3e8                 	// #1000
 1104370:	b9000801 	str	w1, [x0, #8]
 1104374:	90000001 	adrp	x1, 1104000 <ldelf_dlsym+0x10>
 1104378:	910c9021 	add	x1, x1, #0x324
 110437c:	f9000801 	str	x1, [x0, #16]
 1104380:	d65f03c0 	ret

0000000001104384 <plat_prng_add_jitter_entropy>:
 *
 * and adding one byte of entropy when we reach 8 rotated bits.
 */

void plat_prng_add_jitter_entropy(enum crypto_rng_src sid, unsigned int *pnum)
{
 1104384:	a9bd7bfd 	stp	x29, x30, [sp, #-48]!
 1104388:	910003fd 	mov	x29, sp
 110438c:	a90153f3 	stp	x19, x20, [sp, #16]
 1104390:	2a0003f3 	mov	w19, w0
 1104394:	aa0103f4 	mov	x20, x1
 1104398:	a9025bf5 	stp	x21, x22, [sp, #32]
	asm volatile ("isb");
 110439c:	d5033fdf 	isb
DEFINE_REG_READ_FUNC_(cntpct, uint64_t, cntpct_el0)
 11043a0:	d53be021 	mrs	x1, cntpct_el0
	uint64_t tsc = barrier_read_cntpct();
	int bytes = 0, n;
	static uint8_t first, bits;
	static uint16_t acc;

	if (!first) {
 11043a4:	90000320 	adrp	x0, 1168000 <data.5093+0x9e28>
 11043a8:	90000324 	adrp	x4, 1168000 <data.5093+0x9e28>
 11043ac:	396a3c02 	ldrb	w2, [x0, #2703]
 11043b0:	35000362 	cbnz	w2, 110441c <plat_prng_add_jitter_entropy+0x98>
		acc = tsc;
 11043b4:	79151881 	strh	w1, [x4, #2700]
		bytes = 2;
 11043b8:	52800055 	mov	w21, #0x2                   	// #2
		first = 1;
 11043bc:	52800021 	mov	w1, #0x1                   	// #1
 11043c0:	392a3c01 	strb	w1, [x0, #2703]
			bits = 0;
			bytes = 1;
		}
	}
	if (bytes) {
		FMSG("0x%02X", (int)acc & ((1 << (bytes * 8)) - 1));
 11043c4:	531d72a2 	lsl	w2, w21, #3
 11043c8:	79551885 	ldrh	w5, [x4, #2700]
 11043cc:	52800023 	mov	w3, #0x1                   	// #1
 11043d0:	912a3096 	add	x22, x4, #0xa8c
 11043d4:	1ac22062 	lsl	w2, w3, w2
 11043d8:	51000442 	sub	w2, w2, #0x1
 11043dc:	0a050045 	and	w5, w2, w5
 11043e0:	52800901 	mov	w1, #0x48                  	// #72
 11043e4:	52800082 	mov	w2, #0x4                   	// #4
 11043e8:	b0000264 	adrp	x4, 1151000 <small_prime+0x168>
 11043ec:	b0000260 	adrp	x0, 1151000 <small_prime+0x168>
 11043f0:	910e6084 	add	x4, x4, #0x398
 11043f4:	910e7c00 	add	x0, x0, #0x39f
 11043f8:	94010253 	bl	1144d44 <trace_printf>
		crypto_rng_add_event(sid, pnum, (uint8_t *)&acc, bytes);
 11043fc:	93407ea3 	sxtw	x3, w21
 1104400:	aa1603e2 	mov	x2, x22
 1104404:	aa1403e1 	mov	x1, x20
 1104408:	2a1303e0 	mov	w0, w19
	}
}
 110440c:	a94153f3 	ldp	x19, x20, [sp, #16]
 1104410:	a9425bf5 	ldp	x21, x22, [sp, #32]
 1104414:	a8c37bfd 	ldp	x29, x30, [sp], #48
		crypto_rng_add_event(sid, pnum, (uint8_t *)&acc, bytes);
 1104418:	14002be9 	b	110f3bc <crypto_rng_add_event>
		acc = (acc << 2) | ((acc >> 6) & 3);
 110441c:	79551882 	ldrh	w2, [x4, #2700]
		for (n = 0; n < 64; n += 2)
 1104420:	52800003 	mov	w3, #0x0                   	// #0
		acc = (acc << 2) | ((acc >> 6) & 3);
 1104424:	d3461c40 	ubfx	x0, x2, #6, #2
 1104428:	2a020802 	orr	w2, w0, w2, lsl #2
 110442c:	12003c42 	and	w2, w2, #0xffff
			acc ^= (tsc >> n) & 3;
 1104430:	9ac32420 	lsr	x0, x1, x3
		for (n = 0; n < 64; n += 2)
 1104434:	11000863 	add	w3, w3, #0x2
			acc ^= (tsc >> n) & 3;
 1104438:	12000400 	and	w0, w0, #0x3
		for (n = 0; n < 64; n += 2)
 110443c:	7101007f 	cmp	w3, #0x40
			acc ^= (tsc >> n) & 3;
 1104440:	4a000042 	eor	w2, w2, w0
		for (n = 0; n < 64; n += 2)
 1104444:	54ffff61 	b.ne	1104430 <plat_prng_add_jitter_entropy+0xac>  // b.any
		bits += 2;
 1104448:	90000320 	adrp	x0, 1168000 <data.5093+0x9e28>
 110444c:	79151882 	strh	w2, [x4, #2700]
 1104450:	396a3802 	ldrb	w2, [x0, #2702]
 1104454:	11000842 	add	w2, w2, #0x2
 1104458:	12001c42 	and	w2, w2, #0xff
		if (bits >= 8) {
 110445c:	71001c5f 	cmp	w2, #0x7
 1104460:	540000c8 	b.hi	1104478 <plat_prng_add_jitter_entropy+0xf4>  // b.pmore
		bits += 2;
 1104464:	392a3802 	strb	w2, [x0, #2702]
}
 1104468:	a94153f3 	ldp	x19, x20, [sp, #16]
 110446c:	a9425bf5 	ldp	x21, x22, [sp, #32]
 1104470:	a8c37bfd 	ldp	x29, x30, [sp], #48
 1104474:	d65f03c0 	ret
			bits = 0;
 1104478:	392a381f 	strb	wzr, [x0, #2702]
			bytes = 1;
 110447c:	52800035 	mov	w21, #0x1                   	// #1
 1104480:	17ffffd1 	b	11043c4 <plat_prng_add_jitter_entropy+0x40>

0000000001104484 <__cpu_spin_lock>:
#include <asm.S>
#include <kernel/spinlock.h>

/* void __cpu_spin_lock(unsigned int *lock); */
FUNC __cpu_spin_lock , :
	mov	w2, #SPINLOCK_LOCK
 1104484:	52800022 	mov	w2, #0x1                   	// #1
	sevl
 1104488:	d50320bf 	sevl

000000000110448c <l1>:
l1:	wfe
 110448c:	d503205f 	wfe

0000000001104490 <l2>:
l2:	ldaxr	w1, [x0]
 1104490:	885ffc01 	ldaxr	w1, [x0]
	cbnz	w1, l1
 1104494:	35ffffc1 	cbnz	w1, 110448c <l1>
	stxr	w1, w2, [x0]
 1104498:	88017c02 	stxr	w1, w2, [x0]
	cbnz	w1, l2
 110449c:	35ffffa1 	cbnz	w1, 1104490 <l2>
	ret
 11044a0:	d65f03c0 	ret

00000000011044a4 <__cpu_spin_trylock>:
END_FUNC __cpu_spin_lock

/* unsigned int __cpu_spin_trylock(unsigned int *lock); */
FUNC __cpu_spin_trylock , :
	mov     x1, x0
 11044a4:	aa0003e1 	mov	x1, x0
	mov     w2, #SPINLOCK_LOCK
 11044a8:	52800022 	mov	w2, #0x1                   	// #1

00000000011044ac <.loop>:
.loop:	ldaxr   w0, [x1]
 11044ac:	885ffc20 	ldaxr	w0, [x1]
	cbnz    w0, .cpu_spin_trylock_out
 11044b0:	35000060 	cbnz	w0, 11044bc <.cpu_spin_trylock_out>
	stxr    w0, w2, [x1]
 11044b4:	88007c22 	stxr	w0, w2, [x1]
	cbnz    w0, .loop
 11044b8:	35ffffa0 	cbnz	w0, 11044ac <.loop>

00000000011044bc <.cpu_spin_trylock_out>:
.cpu_spin_trylock_out:
	ret
 11044bc:	d65f03c0 	ret

00000000011044c0 <__cpu_spin_unlock>:
END_FUNC __cpu_spin_trylock

/* void __cpu_spin_unlock(unsigned int *lock); */
FUNC __cpu_spin_unlock , :
	stlr	wzr, [x0]
 11044c0:	889ffc1f 	stlr	wzr, [x0]
	ret
 11044c4:	d65f03c0 	ret

00000000011044c8 <spinlock_count_incr>:
#include <compiler.h>
#include <kernel/spinlock.h>
#include "thread_private.h"

void spinlock_count_incr(void)
{
 11044c8:	a9bf7bfd 	stp	x29, x30, [sp, #-16]!
 11044cc:	910003fd 	mov	x29, sp
	struct thread_core_local *l = thread_get_core_local();
 11044d0:	94000329 	bl	1105174 <thread_get_core_local>

	l->locked_count++;
 11044d4:	b9403801 	ldr	w1, [x0, #56]
 11044d8:	11000421 	add	w1, w1, #0x1
 11044dc:	b9003801 	str	w1, [x0, #56]
	assert(l->locked_count);
 11044e0:	35000141 	cbnz	w1, 1104508 <spinlock_count_incr+0x40>
 11044e4:	b0000263 	adrp	x3, 1151000 <small_prime+0x168>
 11044e8:	b0000261 	adrp	x1, 1151000 <small_prime+0x168>
 11044ec:	910fcc63 	add	x3, x3, #0x3f3
 11044f0:	910ef021 	add	x1, x1, #0x3bc
 11044f4:	b0000260 	adrp	x0, 1151000 <small_prime+0x168>
 11044f8:	910f8c00 	add	x0, x0, #0x3e3
 11044fc:	52800202 	mov	w2, #0x10                  	// #16
 1104500:	9400376b 	bl	11122ac <_assert_log>
 1104504:	9400377b 	bl	11122f0 <_assert_break>
}
 1104508:	a8c17bfd 	ldp	x29, x30, [sp], #16
 110450c:	d65f03c0 	ret

0000000001104510 <spinlock_count_decr>:

void spinlock_count_decr(void)
{
 1104510:	a9bf7bfd 	stp	x29, x30, [sp, #-16]!
 1104514:	910003fd 	mov	x29, sp
	struct thread_core_local *l = thread_get_core_local();
 1104518:	94000317 	bl	1105174 <thread_get_core_local>

	assert(l->locked_count);
 110451c:	b9403801 	ldr	w1, [x0, #56]
 1104520:	35000141 	cbnz	w1, 1104548 <spinlock_count_decr+0x38>
 1104524:	b0000263 	adrp	x3, 1151000 <small_prime+0x168>
 1104528:	b0000261 	adrp	x1, 1151000 <small_prime+0x168>
 110452c:	91101c63 	add	x3, x3, #0x407
 1104530:	910ef021 	add	x1, x1, #0x3bc
 1104534:	b0000260 	adrp	x0, 1151000 <small_prime+0x168>
 1104538:	910f8c00 	add	x0, x0, #0x3e3
 110453c:	528002e2 	mov	w2, #0x17                  	// #23
 1104540:	9400375b 	bl	11122ac <_assert_log>
 1104544:	9400376b 	bl	11122f0 <_assert_break>
	l->locked_count--;
 1104548:	51000421 	sub	w1, w1, #0x1
 110454c:	b9003801 	str	w1, [x0, #56]
}
 1104550:	a8c17bfd 	ldp	x29, x30, [sp], #16
 1104554:	d65f03c0 	ret

0000000001104558 <have_spinlock>:

bool __nostackcheck have_spinlock(void)
{
 1104558:	a9bf7bfd 	stp	x29, x30, [sp, #-16]!
 110455c:	910003fd 	mov	x29, sp
void thread_unmask_exceptions(uint32_t state);


static inline bool __nostackcheck thread_foreign_intr_disabled(void)
{
	return !!(thread_get_exceptions() & THREAD_EXCP_FOREIGN_INTR);
 1104560:	9400026d 	bl	1104f14 <thread_get_exceptions>
	struct thread_core_local *l;

	if (!thread_foreign_intr_disabled()) {
 1104564:	360800e0 	tbz	w0, #1, 1104580 <have_spinlock+0x28>
		 * logic is flawed).
		 */
		return false;
	}

	l = thread_get_core_local();
 1104568:	94000303 	bl	1105174 <thread_get_core_local>

	return !!l->locked_count;
 110456c:	b9403800 	ldr	w0, [x0, #56]
 1104570:	7100001f 	cmp	w0, #0x0
 1104574:	1a9f07e0 	cset	w0, ne  // ne = any
}
 1104578:	a8c17bfd 	ldp	x29, x30, [sp], #16
 110457c:	d65f03c0 	ret
		return false;
 1104580:	52800000 	mov	w0, #0x0                   	// #0
 1104584:	17fffffd 	b	1104578 <have_spinlock+0x20>

0000000001104588 <tlbi_all>:
#include <asm.S>
#include <util.h>

/* void tlbi_all(void); */
FUNC tlbi_all , :
	dsb	ishst		/* Sync with table update */
 1104588:	d5033a9f 	dsb	ishst
	tlbi	vmalle1is	/* All tlb in inner shareable */
 110458c:	d508831f 	tlbi	vmalle1is
	dsb	ish		/* Sync with tlb invalidation completion */
 1104590:	d5033b9f 	dsb	ish
	isb			/* Sync execution on tlb update */
 1104594:	d5033fdf 	isb
	ret
 1104598:	d65f03c0 	ret

000000000110459c <tlbi_asid>:
	ret
END_FUNC tlbi_mva_allasid

/* void tlbi_asid(unsigned int asid); */
FUNC tlbi_asid , :
	lsl	x0, x0, #TLBI_ASID_SHIFT
 110459c:	d3503c00 	lsl	x0, x0, #48
	dsb	ishst		/* Sync with table update */
 11045a0:	d5033a9f 	dsb	ishst
	tlbi	aside1is, x0	/* Invalidate tlb by asid in inner shareable */
 11045a4:	d5088340 	tlbi	aside1is, x0
	orr	x0, x0, #BIT(TLBI_ASID_SHIFT) /* Select the kernel ASID */
 11045a8:	b2500000 	orr	x0, x0, #0x1000000000000
	tlbi	aside1is, x0	/* Invalidate tlb by asid in inner shareable */
 11045ac:	d5088340 	tlbi	aside1is, x0
	dsb	ish		/* Sync with tlb invalidation completion */
 11045b0:	d5033b9f 	dsb	ish
	isb			/* Sync execution on tlb update */
 11045b4:	d5033fdf 	isb
	ret
 11045b8:	d65f03c0 	ret

00000000011045bc <dcache_cleaninv_range>:
	 * Clean+Invalidate from base address till
	 * size. 'x0' = addr, 'x1' = size
	 * ------------------------------------------
	 */
FUNC dcache_cleaninv_range , :
	do_dcache_maintenance_by_mva civac
 11045bc:	d53b0023 	mrs	x3, ctr_el0
 11045c0:	d3504c63 	ubfx	x3, x3, #16, #4
 11045c4:	d2800082 	mov	x2, #0x4                   	// #4
 11045c8:	9ac32042 	lsl	x2, x2, x3
 11045cc:	8b010001 	add	x1, x0, x1
 11045d0:	d1000443 	sub	x3, x2, #0x1
 11045d4:	8a230000 	bic	x0, x0, x3

00000000011045d8 <loop_civac>:
 11045d8:	d50b7e20 	dc	civac, x0
 11045dc:	8b020000 	add	x0, x0, x2
 11045e0:	eb01001f 	cmp	x0, x1
 11045e4:	54ffffa3 	b.cc	11045d8 <loop_civac>  // b.lo, b.ul, b.last
 11045e8:	d5033f9f 	dsb	sy
 11045ec:	d65f03c0 	ret

00000000011045f0 <dcache_clean_range>:
	 * Clean from base address till size.
	 * 'x0' = addr, 'x1' = size
	 * ------------------------------------------
	 */
FUNC dcache_clean_range , :
	do_dcache_maintenance_by_mva cvac
 11045f0:	d53b0023 	mrs	x3, ctr_el0
 11045f4:	d3504c63 	ubfx	x3, x3, #16, #4
 11045f8:	d2800082 	mov	x2, #0x4                   	// #4
 11045fc:	9ac32042 	lsl	x2, x2, x3
 1104600:	8b010001 	add	x1, x0, x1
 1104604:	d1000443 	sub	x3, x2, #0x1
 1104608:	8a230000 	bic	x0, x0, x3

000000000110460c <loop_cvac>:
 110460c:	d50b7a20 	dc	cvac, x0
 1104610:	8b020000 	add	x0, x0, x2
 1104614:	eb01001f 	cmp	x0, x1
 1104618:	54ffffa3 	b.cc	110460c <loop_cvac>  // b.lo, b.ul, b.last
 110461c:	d5033f9f 	dsb	sy
 1104620:	d65f03c0 	ret

0000000001104624 <dcache_inv_range>:
	 * Invalidate from base address till
	 * size. 'x0' = addr, 'x1' = size
	 * ------------------------------------------
	 */
FUNC dcache_inv_range , :
	do_dcache_maintenance_by_mva ivac
 1104624:	d53b0023 	mrs	x3, ctr_el0
 1104628:	d3504c63 	ubfx	x3, x3, #16, #4
 110462c:	d2800082 	mov	x2, #0x4                   	// #4
 1104630:	9ac32042 	lsl	x2, x2, x3
 1104634:	8b010001 	add	x1, x0, x1
 1104638:	d1000443 	sub	x3, x2, #0x1
 110463c:	8a230000 	bic	x0, x0, x3

0000000001104640 <loop_ivac>:
 1104640:	d5087620 	dc	ivac, x0
 1104644:	8b020000 	add	x0, x0, x2
 1104648:	eb01001f 	cmp	x0, x1
 110464c:	54ffffa3 	b.cc	1104640 <loop_ivac>  // b.lo, b.ul, b.last
 1104650:	d5033f9f 	dsb	sy
 1104654:	d65f03c0 	ret

0000000001104658 <do_dcsw_op>:
	mov	x10, xzr
	b	do_dcsw_op
	.endm

LOCAL_FUNC do_dcsw_op , :
	cbz	x3, exit
 1104658:	b40003c3 	cbz	x3, 11046d0 <exit>
	adr	x14, dcsw_loop_table	// compute inner loop address
 110465c:	100003ce 	adr	x14, 11046d4 <dcsw_loop_table>
	add	x14, x14, x0, lsl #5	// inner loop is 8x32-bit instructions
 1104660:	8b0015ce 	add	x14, x14, x0, lsl #5
	mov	x0, x9
 1104664:	aa0903e0 	mov	x0, x9
	mov	w8, #1
 1104668:	52800028 	mov	w8, #0x1                   	// #1

000000000110466c <loop1>:
loop1:
	add	x2, x10, x10, lsr #1	// work out 3x current cache level
 110466c:	8b4a0542 	add	x2, x10, x10, lsr #1
	lsr	x1, x0, x2		// extract cache type bits from clidr
 1104670:	9ac22401 	lsr	x1, x0, x2
	and	x1, x1, #7		// mask the bits for current cache only
 1104674:	92400821 	and	x1, x1, #0x7
	cmp	x1, #2			// see what cache we have at this level
 1104678:	f100083f 	cmp	x1, #0x2
	b.lo	level_done		// nothing to do if no cache or icache
 110467c:	540001e3 	b.cc	11046b8 <level_done>  // b.lo, b.ul, b.last

	msr	csselr_el1, x10		// select current cache level in csselr
 1104680:	d51a000a 	msr	csselr_el1, x10
	isb				// isb to sych the new cssr&csidr
 1104684:	d5033fdf 	isb
	mrs	x1, ccsidr_el1		// read the new ccsidr
 1104688:	d5390001 	mrs	x1, ccsidr_el1
	and	x2, x1, #7		// extract the length of the cache lines
 110468c:	92400822 	and	x2, x1, #0x7
	add	x2, x2, #4		// add 4 (line length offset)
 1104690:	91001042 	add	x2, x2, #0x4
	ubfx	x4, x1, #3, #10		// maximum way number
 1104694:	d3433024 	ubfx	x4, x1, #3, #10
	clz	w5, w4			// bit position of way size increment
 1104698:	5ac01085 	clz	w5, w4
	lsl	w9, w4, w5		// w9 = aligned max way number
 110469c:	1ac52089 	lsl	w9, w4, w5
	lsl	w16, w8, w5		// w16 = way number loop decrement
 11046a0:	1ac52110 	lsl	w16, w8, w5
	orr	w9, w10, w9		// w9 = combine way and cache number
 11046a4:	2a090149 	orr	w9, w10, w9
	ubfx	w6, w1, #13, #15	// w6 = max set number
 11046a8:	530d6c26 	ubfx	w6, w1, #13, #15
	lsl	w17, w8, w2		// w17 = set number loop decrement
 11046ac:	1ac22111 	lsl	w17, w8, w2
	dsb	sy			// barrier before we start this level
 11046b0:	d5033f9f 	dsb	sy
	br	x14			// jump to DC operation specific loop
 11046b4:	d61f01c0 	br	x14

00000000011046b8 <level_done>:

	b	level_done
	.endm

level_done:
	add	x10, x10, #2		// increment cache number
 11046b8:	9100094a 	add	x10, x10, #0x2
	cmp	x3, x10
 11046bc:	eb0a007f 	cmp	x3, x10
	b.hi    loop1
 11046c0:	54fffd68 	b.hi	110466c <loop1>  // b.pmore
	msr	csselr_el1, xzr		// select cache level 0 in csselr
 11046c4:	d51a001f 	msr	csselr_el1, xzr
	dsb	sy			// barrier to complete final cache operation
 11046c8:	d5033f9f 	dsb	sy
	isb
 11046cc:	d5033fdf 	isb

00000000011046d0 <exit>:
exit:
	ret
 11046d0:	d65f03c0 	ret

00000000011046d4 <dcsw_loop_table>:

dcsw_loop_table:
	dcsw_loop isw
 11046d4:	1ac220c7 	lsl	w7, w6, w2

00000000011046d8 <loop3_isw>:
 11046d8:	2a07012b 	orr	w11, w9, w7
 11046dc:	d508764b 	dc	isw, x11
 11046e0:	6b1100e7 	subs	w7, w7, w17
 11046e4:	54ffffa2 	b.cs	11046d8 <loop3_isw>  // b.hs, b.nlast
 11046e8:	eb100129 	subs	x9, x9, x16
 11046ec:	54ffff42 	b.cs	11046d4 <dcsw_loop_table>  // b.hs, b.nlast
 11046f0:	17fffff2 	b	11046b8 <level_done>

00000000011046f4 <loop2_cisw>:
	dcsw_loop cisw
 11046f4:	1ac220c7 	lsl	w7, w6, w2

00000000011046f8 <loop3_cisw>:
 11046f8:	2a07012b 	orr	w11, w9, w7
 11046fc:	d5087e4b 	dc	cisw, x11
 1104700:	6b1100e7 	subs	w7, w7, w17
 1104704:	54ffffa2 	b.cs	11046f8 <loop3_cisw>  // b.hs, b.nlast
 1104708:	eb100129 	subs	x9, x9, x16
 110470c:	54ffff42 	b.cs	11046f4 <loop2_cisw>  // b.hs, b.nlast
 1104710:	17ffffea 	b	11046b8 <level_done>

0000000001104714 <loop2_csw>:
	dcsw_loop csw
 1104714:	1ac220c7 	lsl	w7, w6, w2

0000000001104718 <loop3_csw>:
 1104718:	2a07012b 	orr	w11, w9, w7
 110471c:	d5087a4b 	dc	csw, x11
 1104720:	6b1100e7 	subs	w7, w7, w17
 1104724:	54ffffa2 	b.cs	1104718 <loop3_csw>  // b.hs, b.nlast
 1104728:	eb100129 	subs	x9, x9, x16
 110472c:	54ffff42 	b.cs	1104714 <loop2_csw>  // b.hs, b.nlast
 1104730:	17ffffe2 	b	11046b8 <level_done>

0000000001104734 <dcache_op_louis>:
END_FUNC do_dcsw_op

FUNC dcache_op_louis , :
	dcsw_op #CLIDR_LOUIS_SHIFT, #CLIDR_FIELD_WIDTH, #CSSELR_LEVEL_SHIFT
 1104734:	d5390029 	mrs	x9, clidr_el1
 1104738:	d3555d23 	ubfx	x3, x9, #21, #3
 110473c:	d37ff863 	lsl	x3, x3, #1
 1104740:	aa1f03ea 	mov	x10, xzr
 1104744:	17ffffc5 	b	1104658 <do_dcsw_op>

0000000001104748 <dcache_op_all>:
END_FUNC dcache_op_louis

FUNC dcache_op_all , :
	dcsw_op #CLIDR_LOC_SHIFT, #CLIDR_FIELD_WIDTH, #CSSELR_LEVEL_SHIFT
 1104748:	d5390029 	mrs	x9, clidr_el1
 110474c:	d3586923 	ubfx	x3, x9, #24, #3
 1104750:	d37ff863 	lsl	x3, x3, #1
 1104754:	aa1f03ea 	mov	x10, xzr
 1104758:	17ffffc0 	b	1104658 <do_dcsw_op>

000000000110475c <icache_inv_all>:
	dcsw_op_level #(3 << CSSELR_LEVEL_SHIFT)
END_FUNC dcache_op_level3

FUNC icache_inv_all , :
	/* Invalidate Entire Instruction Cache */
	ic	ialluis
 110475c:	d508711f 	ic	ialluis

	dsb	ish	/* ensure that maintenance operations are seen */
 1104760:	d5033b9f 	dsb	ish
	isb		/* by the instructions rigth after the isb */
 1104764:	d5033fdf 	isb

	ret
 1104768:	d65f03c0 	ret

000000000110476c <icache_inv_range>:
END_FUNC icache_inv_all

FUNC icache_inv_range , :
	icache_line_size x2, x3
 110476c:	d53b0023 	mrs	x3, ctr_el0
 1104770:	92400c63 	and	x3, x3, #0xf
 1104774:	d2800082 	mov	x2, #0x4                   	// #4
 1104778:	9ac32042 	lsl	x2, x2, x3
	add	x1, x0, x1
 110477c:	8b010001 	add	x1, x0, x1
	sub	x3, x2, #1
 1104780:	d1000443 	sub	x3, x2, #0x1
	bic	x0, x0, x3
 1104784:	8a230000 	bic	x0, x0, x3

0000000001104788 <loop_ic_inv>:
loop_ic_inv:
	ic	ivau, x0
 1104788:	d50b7520 	ic	ivau, x0
	add	x0, x0, x2
 110478c:	8b020000 	add	x0, x0, x2
	cmp	x0, x1
 1104790:	eb01001f 	cmp	x0, x1
	b.lo    loop_ic_inv
 1104794:	54ffffa3 	b.cc	1104788 <loop_ic_inv>  // b.lo, b.ul, b.last
	dsb	ish
 1104798:	d5033b9f 	dsb	ish
	ret
 110479c:	d65f03c0 	ret

00000000011047a0 <thread_resume>:
	load_xregs x0, THREAD_CTX_REGS_SP, 1, 3
 11047a0:	a9400801 	ldp	x1, x2, [x0]
 11047a4:	f9400803 	ldr	x3, [x0, #16]
	load_xregs x0, THREAD_CTX_REGS_X4, 4, 30
 11047a8:	a9439404 	ldp	x4, x5, [x0, #56]
 11047ac:	a9449c06 	ldp	x6, x7, [x0, #72]
 11047b0:	a945a408 	ldp	x8, x9, [x0, #88]
 11047b4:	a946ac0a 	ldp	x10, x11, [x0, #104]
 11047b8:	a947b40c 	ldp	x12, x13, [x0, #120]
 11047bc:	a948bc0e 	ldp	x14, x15, [x0, #136]
 11047c0:	a949c410 	ldp	x16, x17, [x0, #152]
 11047c4:	a94acc12 	ldp	x18, x19, [x0, #168]
 11047c8:	a94bd414 	ldp	x20, x21, [x0, #184]
 11047cc:	a94cdc16 	ldp	x22, x23, [x0, #200]
 11047d0:	a94de418 	ldp	x24, x25, [x0, #216]
 11047d4:	a94eec1a 	ldp	x26, x27, [x0, #232]
 11047d8:	a94ff41c 	ldp	x28, x29, [x0, #248]
 11047dc:	f940841e 	ldr	x30, [x0, #264]
	mov	sp, x1
 11047e0:	9100003f 	mov	sp, x1
	msr	elr_el1, x2
 11047e4:	d5184022 	msr	elr_el1, x2
	msr	spsr_el1, x3
 11047e8:	d5184003 	msr	spsr_el1, x3
	ldr	x1, [x0, THREAD_CTX_REGS_TPIDR_EL0]
 11047ec:	f9408801 	ldr	x1, [x0, #272]
	msr	tpidr_el0, x1
 11047f0:	d51bd041 	msr	tpidr_el0, x1
	b_if_spsr_is_el0 w3, 1f
 11047f4:	37800123 	tbnz	w3, #16, 1104818 <thread_resume+0x78>
 11047f8:	721e047f 	tst	w3, #0xc
 11047fc:	540000e0 	b.eq	1104818 <thread_resume+0x78>  // b.none
	load_xregs x0, THREAD_CTX_REGS_X1, 1, 3
 1104800:	a9420801 	ldp	x1, x2, [x0, #32]
 1104804:	f9401803 	ldr	x3, [x0, #48]
	ldr	x0, [x0, THREAD_CTX_REGS_X0]
 1104808:	f9400c00 	ldr	x0, [x0, #24]
	return_from_exception
 110480c:	d69f03e0 	eret
 1104810:	d503379f 	dsb	nsh
 1104814:	d5033fdf 	isb
1:	load_xregs x0, THREAD_CTX_REGS_X1, 1, 3
 1104818:	a9420801 	ldp	x1, x2, [x0, #32]
 110481c:	f9401803 	ldr	x3, [x0, #48]
	ldr	x0, [x0, THREAD_CTX_REGS_X0]
 1104820:	f9400c00 	ldr	x0, [x0, #24]
	msr	spsel, #1
 1104824:	d50041bf 	msr	spsel, #0x1
	store_xregs sp, THREAD_CORE_LOCAL_X0, 0, 1
 1104828:	a90007e0 	stp	x0, x1, [sp]
	b	eret_to_el0
 110482c:	17fff9d6 	b	1102f84 <eret_to_el0>

0000000001104830 <thread_smc>:
	smc	#0
 1104830:	d4000003 	smc	#0x0
	ret
 1104834:	d65f03c0 	ret

0000000001104838 <thread_init_vbar>:
	msr	vbar_el1, x0
 1104838:	d518c000 	msr	vbar_el1, x0
	ret
 110483c:	d65f03c0 	ret

0000000001104840 <thread_unwind_user_mode>:
	load_xregs sp, THREAD_USER_MODE_REC_CTX_REGS_PTR, 3, 5
 1104840:	a94013e3 	ldp	x3, x4, [sp]
 1104844:	f9400be5 	ldr	x5, [sp, #16]
	str	w1, [x4]
 1104848:	b9000081 	str	w1, [x4]
	str	w2, [x5]
 110484c:	b90000a2 	str	w2, [x5]
	store_xregs x3, THREAD_CTX_REGS_X19, 19, 30
 1104850:	a90b5073 	stp	x19, x20, [x3, #176]
 1104854:	a90c5875 	stp	x21, x22, [x3, #192]
 1104858:	a90d6077 	stp	x23, x24, [x3, #208]
 110485c:	a90e6879 	stp	x25, x26, [x3, #224]
 1104860:	a90f707b 	stp	x27, x28, [x3, #240]
 1104864:	a910787d 	stp	x29, x30, [x3, #256]
	load_xregs sp, THREAD_USER_MODE_REC_X19, 19, 30
 1104868:	a94253f3 	ldp	x19, x20, [sp, #32]
 110486c:	a9435bf5 	ldp	x21, x22, [sp, #48]
 1104870:	a94463f7 	ldp	x23, x24, [sp, #64]
 1104874:	a9456bf9 	ldp	x25, x26, [sp, #80]
 1104878:	a94673fb 	ldp	x27, x28, [sp, #96]
 110487c:	a9477bfd 	ldp	x29, x30, [sp, #112]
	add	sp, sp, #THREAD_USER_MODE_REC_SIZE
 1104880:	910203ff 	add	sp, sp, #0x80
	ret
 1104884:	d65f03c0 	ret

0000000001104888 <el1_sync_abort>:
	mov	x0, sp
 1104888:	910003e0 	mov	x0, sp
	msr	spsel, #0
 110488c:	d50040bf 	msr	spsel, #0x0
	mov	x3, sp		/* Save original sp */
 1104890:	910003e3 	mov	x3, sp
	ldr	w1, [x0, #THREAD_CORE_LOCAL_FLAGS]
 1104894:	b9402c01 	ldr	w1, [x0, #44]
	lsl	w1, w1, #THREAD_CLF_SAVED_SHIFT
 1104898:	531c6c21 	lsl	w1, w1, #4
	orr	w1, w1, #THREAD_CLF_ABORT
 110489c:	321f0021 	orr	w1, w1, #0x2
	tbnz	w1, #(THREAD_CLF_SAVED_SHIFT + THREAD_CLF_ABORT_SHIFT), \
 11048a0:	37280061 	tbnz	w1, #5, 11048ac <el1_sync_abort+0x24>
	ldr	x2, [x0, #THREAD_CORE_LOCAL_ABT_STACK_VA_END]
 11048a4:	f9401802 	ldr	x2, [x0, #48]
	b	.Lset_sp
 11048a8:	14000003 	b	11048b4 <el1_sync_abort+0x2c>
	ldr	x2, [x0, #THREAD_CORE_LOCAL_TMP_STACK_VA_END]
 11048ac:	f9401002 	ldr	x2, [x0, #32]
	orr	w1, w1, #THREAD_CLF_TMP	/* flags |= THREAD_CLF_TMP; */
 11048b0:	32000021 	orr	w1, w1, #0x1
	mov	sp, x2
 11048b4:	9100005f 	mov	sp, x2
	str	w1, [x0, #THREAD_CORE_LOCAL_FLAGS]
 11048b8:	b9002c01 	str	w1, [x0, #44]
	sub	sp, sp, #THREAD_ABT_REGS_SIZE
 11048bc:	d10443ff 	sub	sp, sp, #0x110
	mrs	x2, spsr_el1
 11048c0:	d5384002 	mrs	x2, spsr_el1
	stp	x2, x3, [sp, #THREAD_ABT_REG_SPSR]
 11048c4:	a9100fe2 	stp	x2, x3, [sp, #256]
	ldp	x2, x3, [x0, #THREAD_CORE_LOCAL_X0]
 11048c8:	a9400c02 	ldp	x2, x3, [x0]
	stp	x2, x3, [sp, #THREAD_ABT_REG_X0]
 11048cc:	a9000fe2 	stp	x2, x3, [sp]
	ldp	x2, x3, [x0, #THREAD_CORE_LOCAL_X2]
 11048d0:	a9410c02 	ldp	x2, x3, [x0, #16]
	store_xregs sp, THREAD_ABT_REG_X2, 2, 29
 11048d4:	a9010fe2 	stp	x2, x3, [sp, #16]
 11048d8:	a90217e4 	stp	x4, x5, [sp, #32]
 11048dc:	a9031fe6 	stp	x6, x7, [sp, #48]
 11048e0:	a90427e8 	stp	x8, x9, [sp, #64]
 11048e4:	a9052fea 	stp	x10, x11, [sp, #80]
 11048e8:	a90637ec 	stp	x12, x13, [sp, #96]
 11048ec:	a9073fee 	stp	x14, x15, [sp, #112]
 11048f0:	a90847f0 	stp	x16, x17, [sp, #128]
 11048f4:	a9094ff2 	stp	x18, x19, [sp, #144]
 11048f8:	a90a57f4 	stp	x20, x21, [sp, #160]
 11048fc:	a90b5ff6 	stp	x22, x23, [sp, #176]
 1104900:	a90c67f8 	stp	x24, x25, [sp, #192]
 1104904:	a90d6ffa 	stp	x26, x27, [sp, #208]
 1104908:	a90e77fc 	stp	x28, x29, [sp, #224]
	mrs	x0, elr_el1
 110490c:	d5384020 	mrs	x0, elr_el1
	stp	x30, x0, [sp, #THREAD_ABT_REG_X30]
 1104910:	a90f03fe 	stp	x30, x0, [sp, #240]
	mov	x0, #0
 1104914:	d2800000 	mov	x0, #0x0                   	// #0
	mov	x1, sp
 1104918:	910003e1 	mov	x1, sp
	bl	abort_handler
 110491c:	94000bbf 	bl	1107818 <abort_handler>
	ldp	x30, x0, [sp, #THREAD_ABT_REG_X30]
 1104920:	a94f03fe 	ldp	x30, x0, [sp, #240]
	msr	elr_el1, x0
 1104924:	d5184020 	msr	elr_el1, x0
	load_xregs sp, THREAD_ABT_REG_X0, 0, 29
 1104928:	a94007e0 	ldp	x0, x1, [sp]
 110492c:	a9410fe2 	ldp	x2, x3, [sp, #16]
 1104930:	a94217e4 	ldp	x4, x5, [sp, #32]
 1104934:	a9431fe6 	ldp	x6, x7, [sp, #48]
 1104938:	a94427e8 	ldp	x8, x9, [sp, #64]
 110493c:	a9452fea 	ldp	x10, x11, [sp, #80]
 1104940:	a94637ec 	ldp	x12, x13, [sp, #96]
 1104944:	a9473fee 	ldp	x14, x15, [sp, #112]
 1104948:	a94847f0 	ldp	x16, x17, [sp, #128]
 110494c:	a9494ff2 	ldp	x18, x19, [sp, #144]
 1104950:	a94a57f4 	ldp	x20, x21, [sp, #160]
 1104954:	a94b5ff6 	ldp	x22, x23, [sp, #176]
 1104958:	a94c67f8 	ldp	x24, x25, [sp, #192]
 110495c:	a94d6ffa 	ldp	x26, x27, [sp, #208]
 1104960:	a94e77fc 	ldp	x28, x29, [sp, #224]
	msr	spsel, #1
 1104964:	d50041bf 	msr	spsel, #0x1
	store_xregs sp, THREAD_CORE_LOCAL_X0, 0, 3
 1104968:	a90007e0 	stp	x0, x1, [sp]
 110496c:	a9010fe2 	stp	x2, x3, [sp, #16]
	mrs	x3, sp_el0
 1104970:	d5384103 	mrs	x3, sp_el0
	ldp	x0, x1, [x3, #THREAD_ABT_REG_SPSR]
 1104974:	a9500460 	ldp	x0, x1, [x3, #256]
	msr	spsr_el1, x0
 1104978:	d5184000 	msr	spsr_el1, x0
	msr	sp_el0, x1
 110497c:	d5184101 	msr	sp_el0, x1
	ldr	w0, [sp, #THREAD_CORE_LOCAL_FLAGS]
 1104980:	b9402fe0 	ldr	w0, [sp, #44]
	lsr	w0, w0, #THREAD_CLF_SAVED_SHIFT
 1104984:	53047c00 	lsr	w0, w0, #4
	str	w0, [sp, #THREAD_CORE_LOCAL_FLAGS]
 1104988:	b9002fe0 	str	w0, [sp, #44]
	load_xregs sp, THREAD_CORE_LOCAL_X0, 0, 3
 110498c:	a94007e0 	ldp	x0, x1, [sp]
 1104990:	a9410fe2 	ldp	x2, x3, [sp, #16]
	return_from_exception
 1104994:	d69f03e0 	eret
 1104998:	d503379f 	dsb	nsh
 110499c:	d5033fdf 	isb

00000000011049a0 <el0_sync_abort>:
	ldr	w1, [sp, #THREAD_CORE_LOCAL_FLAGS]
 11049a0:	b9402fe1 	ldr	w1, [sp, #44]
	lsl	w1, w1, #THREAD_CLF_SAVED_SHIFT
 11049a4:	531c6c21 	lsl	w1, w1, #4
	orr	w1, w1, #THREAD_CLF_ABORT
 11049a8:	321f0021 	orr	w1, w1, #0x2
	str	w1, [sp, #THREAD_CORE_LOCAL_FLAGS]
 11049ac:	b9002fe1 	str	w1, [sp, #44]
	ldr	x1, [sp, #THREAD_CORE_LOCAL_ABT_STACK_VA_END]
 11049b0:	f9401be1 	ldr	x1, [sp, #48]
	mov	x0, sp
 11049b4:	910003e0 	mov	x0, sp
	msr	spsel, #0
 11049b8:	d50040bf 	msr	spsel, #0x0
	mov	sp, x1
 11049bc:	9100003f 	mov	sp, x1
	sub	sp, sp, #THREAD_ABT_REGS_SIZE
 11049c0:	d10443ff 	sub	sp, sp, #0x110
	mrs	x2, spsr_el1
 11049c4:	d5384002 	mrs	x2, spsr_el1
	stp	x2, x3, [sp, #THREAD_ABT_REG_SPSR]
 11049c8:	a9100fe2 	stp	x2, x3, [sp, #256]
	ldp	x2, x3, [x0, #THREAD_CORE_LOCAL_X0]
 11049cc:	a9400c02 	ldp	x2, x3, [x0]
	stp	x2, x3, [sp, #THREAD_ABT_REG_X0]
 11049d0:	a9000fe2 	stp	x2, x3, [sp]
	ldp	x2, x3, [x0, #THREAD_CORE_LOCAL_X2]
 11049d4:	a9410c02 	ldp	x2, x3, [x0, #16]
	store_xregs sp, THREAD_ABT_REG_X2, 2, 29
 11049d8:	a9010fe2 	stp	x2, x3, [sp, #16]
 11049dc:	a90217e4 	stp	x4, x5, [sp, #32]
 11049e0:	a9031fe6 	stp	x6, x7, [sp, #48]
 11049e4:	a90427e8 	stp	x8, x9, [sp, #64]
 11049e8:	a9052fea 	stp	x10, x11, [sp, #80]
 11049ec:	a90637ec 	stp	x12, x13, [sp, #96]
 11049f0:	a9073fee 	stp	x14, x15, [sp, #112]
 11049f4:	a90847f0 	stp	x16, x17, [sp, #128]
 11049f8:	a9094ff2 	stp	x18, x19, [sp, #144]
 11049fc:	a90a57f4 	stp	x20, x21, [sp, #160]
 1104a00:	a90b5ff6 	stp	x22, x23, [sp, #176]
 1104a04:	a90c67f8 	stp	x24, x25, [sp, #192]
 1104a08:	a90d6ffa 	stp	x26, x27, [sp, #208]
 1104a0c:	a90e77fc 	stp	x28, x29, [sp, #224]
	mrs	x0, elr_el1
 1104a10:	d5384020 	mrs	x0, elr_el1
	stp	x30, x0, [sp, #THREAD_ABT_REG_X30]
 1104a14:	a90f03fe 	stp	x30, x0, [sp, #240]
	mov	x0, #0
 1104a18:	d2800000 	mov	x0, #0x0                   	// #0
	mov	x1, sp
 1104a1c:	910003e1 	mov	x1, sp
	bl	abort_handler
 1104a20:	94000b7e 	bl	1107818 <abort_handler>
	ldp	x30, x0, [sp, #THREAD_ABT_REG_X30]
 1104a24:	a94f03fe 	ldp	x30, x0, [sp, #240]
	msr	elr_el1, x0
 1104a28:	d5184020 	msr	elr_el1, x0
	load_xregs sp, THREAD_ABT_REG_X0, 0, 29
 1104a2c:	a94007e0 	ldp	x0, x1, [sp]
 1104a30:	a9410fe2 	ldp	x2, x3, [sp, #16]
 1104a34:	a94217e4 	ldp	x4, x5, [sp, #32]
 1104a38:	a9431fe6 	ldp	x6, x7, [sp, #48]
 1104a3c:	a94427e8 	ldp	x8, x9, [sp, #64]
 1104a40:	a9452fea 	ldp	x10, x11, [sp, #80]
 1104a44:	a94637ec 	ldp	x12, x13, [sp, #96]
 1104a48:	a9473fee 	ldp	x14, x15, [sp, #112]
 1104a4c:	a94847f0 	ldp	x16, x17, [sp, #128]
 1104a50:	a9494ff2 	ldp	x18, x19, [sp, #144]
 1104a54:	a94a57f4 	ldp	x20, x21, [sp, #160]
 1104a58:	a94b5ff6 	ldp	x22, x23, [sp, #176]
 1104a5c:	a94c67f8 	ldp	x24, x25, [sp, #192]
 1104a60:	a94d6ffa 	ldp	x26, x27, [sp, #208]
 1104a64:	a94e77fc 	ldp	x28, x29, [sp, #224]
	msr	spsel, #1
 1104a68:	d50041bf 	msr	spsel, #0x1
	store_xregs sp, THREAD_CORE_LOCAL_X0, 0, 3
 1104a6c:	a90007e0 	stp	x0, x1, [sp]
 1104a70:	a9010fe2 	stp	x2, x3, [sp, #16]
	mrs	x3, sp_el0
 1104a74:	d5384103 	mrs	x3, sp_el0
	ldp	x0, x1, [x3, #THREAD_ABT_REG_SPSR]
 1104a78:	a9500460 	ldp	x0, x1, [x3, #256]
	msr	spsr_el1, x0
 1104a7c:	d5184000 	msr	spsr_el1, x0
	msr	sp_el0, x1
 1104a80:	d5184101 	msr	sp_el0, x1
	ldr	w1, [sp, #THREAD_CORE_LOCAL_FLAGS]
 1104a84:	b9402fe1 	ldr	w1, [sp, #44]
	lsr	w1, w1, #THREAD_CLF_SAVED_SHIFT
 1104a88:	53047c21 	lsr	w1, w1, #4
	str	w1, [sp, #THREAD_CORE_LOCAL_FLAGS]
 1104a8c:	b9002fe1 	str	w1, [sp, #44]
	load_xregs sp, THREAD_CORE_LOCAL_X2, 2, 3
 1104a90:	a9410fe2 	ldp	x2, x3, [sp, #16]
	b_if_spsr_is_el0 w0, 1f
 1104a94:	378000e0 	tbnz	w0, #16, 1104ab0 <el0_sync_abort+0x110>
 1104a98:	721e041f 	tst	w0, #0xc
 1104a9c:	540000a0 	b.eq	1104ab0 <el0_sync_abort+0x110>  // b.none
	load_xregs sp, THREAD_CORE_LOCAL_X0, 0, 1
 1104aa0:	a94007e0 	ldp	x0, x1, [sp]
	return_from_exception
 1104aa4:	d69f03e0 	eret
 1104aa8:	d503379f 	dsb	nsh
 1104aac:	d5033fdf 	isb
1:	b	eret_to_el0
 1104ab0:	17fff935 	b	1102f84 <eret_to_el0>

0000000001104ab4 <elx_fiq>:

LOCAL_FUNC elx_fiq , :
#if defined(CFG_ARM_GICV3)
	foreign_intr_handler	fiq
#else
	native_intr_handler	fiq
 1104ab4:	b9402fe1 	ldr	w1, [sp, #44]
 1104ab8:	531c6c21 	lsl	w1, w1, #4
 1104abc:	321d0021 	orr	w1, w1, #0x8
 1104ac0:	32000021 	orr	w1, w1, #0x1
 1104ac4:	b9002fe1 	str	w1, [sp, #44]
 1104ac8:	f94013e1 	ldr	x1, [sp, #32]
 1104acc:	d5384102 	mrs	x2, sp_el0
 1104ad0:	d50040bf 	msr	spsel, #0x0
 1104ad4:	9100003f 	mov	sp, x1
 1104ad8:	d10243ff 	sub	sp, sp, #0x90
 1104adc:	a90017e4 	stp	x4, x5, [sp]
 1104ae0:	a9011fe6 	stp	x6, x7, [sp, #16]
 1104ae4:	a90227e8 	stp	x8, x9, [sp, #32]
 1104ae8:	a9032fea 	stp	x10, x11, [sp, #48]
 1104aec:	a90437ec 	stp	x12, x13, [sp, #64]
 1104af0:	a9053fee 	stp	x14, x15, [sp, #80]
 1104af4:	a90647f0 	stp	x16, x17, [sp, #96]
 1104af8:	f9003bf2 	str	x18, [sp, #112]
 1104afc:	a9080bfe 	stp	x30, x2, [sp, #128]
 1104b00:	9400004c 	bl	1104c30 <thread_check_canaries>
 1104b04:	94002172 	bl	110d0cc <itr_core_handler>
 1104b08:	a94017e4 	ldp	x4, x5, [sp]
 1104b0c:	a9411fe6 	ldp	x6, x7, [sp, #16]
 1104b10:	a94227e8 	ldp	x8, x9, [sp, #32]
 1104b14:	a9432fea 	ldp	x10, x11, [sp, #48]
 1104b18:	a94437ec 	ldp	x12, x13, [sp, #64]
 1104b1c:	a9453fee 	ldp	x14, x15, [sp, #80]
 1104b20:	a94647f0 	ldp	x16, x17, [sp, #96]
 1104b24:	f9403bf2 	ldr	x18, [sp, #112]
 1104b28:	a9480bfe 	ldp	x30, x2, [sp, #128]
 1104b2c:	9100005f 	mov	sp, x2
 1104b30:	d50041bf 	msr	spsel, #0x1
 1104b34:	b9402fe0 	ldr	w0, [sp, #44]
 1104b38:	53047c00 	lsr	w0, w0, #4
 1104b3c:	b9002fe0 	str	w0, [sp, #44]
 1104b40:	d5384000 	mrs	x0, spsr_el1
 1104b44:	a9410fe2 	ldp	x2, x3, [sp, #16]
 1104b48:	378000e0 	tbnz	w0, #16, 1104b64 <elx_fiq+0xb0>
 1104b4c:	721e041f 	tst	w0, #0xc
 1104b50:	540000a0 	b.eq	1104b64 <elx_fiq+0xb0>  // b.none
 1104b54:	a94007e0 	ldp	x0, x1, [sp]
 1104b58:	d69f03e0 	eret
 1104b5c:	d503379f 	dsb	nsh
 1104b60:	d5033fdf 	isb
 1104b64:	17fff908 	b	1102f84 <eret_to_el0>

0000000001104b68 <thread_cpu_off_handler>:
 */
unsigned long __weak thread_cpu_off_handler(unsigned long a0 __unused,
					    unsigned long a1 __unused)
{
	return 0;
}
 1104b68:	d2800000 	mov	x0, #0x0                   	// #0
 1104b6c:	d65f03c0 	ret

0000000001104b70 <clear_shm_cache_entry>:
{
 1104b70:	a9be7bfd 	stp	x29, x30, [sp, #-32]!
 1104b74:	910003fd 	mov	x29, sp
 1104b78:	f9000bf3 	str	x19, [sp, #16]
 1104b7c:	aa0003f3 	mov	x19, x0
	if (ce->mobj) {
 1104b80:	f9400000 	ldr	x0, [x0]
 1104b84:	b4000100 	cbz	x0, 1104ba4 <clear_shm_cache_entry+0x34>
		switch (ce->type) {
 1104b88:	b9401261 	ldr	w1, [x19, #16]
 1104b8c:	7100043f 	cmp	w1, #0x1
 1104b90:	54000120 	b.eq	1104bb4 <clear_shm_cache_entry+0x44>  // b.none
 1104b94:	7100083f 	cmp	w1, #0x2
 1104b98:	54000120 	b.eq	1104bbc <clear_shm_cache_entry+0x4c>  // b.none
 1104b9c:	35000141 	cbnz	w1, 1104bc4 <clear_shm_cache_entry+0x54>
			thread_rpc_free_payload(ce->mobj);
 1104ba0:	9400093e 	bl	1107098 <thread_rpc_free_payload>
	ce->size = 0;
 1104ba4:	a9007e7f 	stp	xzr, xzr, [x19]
}
 1104ba8:	f9400bf3 	ldr	x19, [sp, #16]
 1104bac:	a8c27bfd 	ldp	x29, x30, [sp], #32
 1104bb0:	d65f03c0 	ret
			thread_rpc_free_kernel_payload(ce->mobj);
 1104bb4:	9400092e 	bl	110706c <thread_rpc_free_kernel_payload>
			break;
 1104bb8:	17fffffb 	b	1104ba4 <clear_shm_cache_entry+0x34>
			thread_rpc_free_global_payload(ce->mobj);
 1104bbc:	94000944 	bl	11070cc <thread_rpc_free_global_payload>
			break;
 1104bc0:	17fffff9 	b	1104ba4 <clear_shm_cache_entry+0x34>
			assert(0); /* "can't happen" */
 1104bc4:	b0000263 	adrp	x3, 1151000 <small_prime+0x168>
 1104bc8:	b0000261 	adrp	x1, 1151000 <small_prime+0x168>
 1104bcc:	91273c63 	add	x3, x3, #0x9cf
 1104bd0:	91106c21 	add	x1, x1, #0x41b
 1104bd4:	b00002a0 	adrp	x0, 1159000 <Worder+0x2854>
 1104bd8:	912c1c00 	add	x0, x0, #0xb07
 1104bdc:	5280cac2 	mov	w2, #0x656                 	// #1622
 1104be0:	940035b3 	bl	11122ac <_assert_log>
 1104be4:	940035c3 	bl	11122f0 <_assert_break>

0000000001104be8 <mobj_get_va.constprop.0>:
	if (mobj && mobj->ops && mobj->ops->get_va)
 1104be8:	b4000100 	cbz	x0, 1104c08 <mobj_get_va.constprop.0+0x20>
 1104bec:	f9400001 	ldr	x1, [x0]
 1104bf0:	b40000c1 	cbz	x1, 1104c08 <mobj_get_va.constprop.0+0x20>
 1104bf4:	f9400022 	ldr	x2, [x1]
 1104bf8:	b4000082 	cbz	x2, 1104c08 <mobj_get_va.constprop.0+0x20>
		return mobj->ops->get_va(mobj, offset);
 1104bfc:	aa0203f0 	mov	x16, x2
 1104c00:	d2800001 	mov	x1, #0x0                   	// #0
 1104c04:	d61f0200 	br	x16
}
 1104c08:	d2800000 	mov	x0, #0x0                   	// #0
 1104c0c:	d65f03c0 	ret

0000000001104c10 <thread_system_reset_handler>:
 1104c10:	d2800000 	mov	x0, #0x0                   	// #0
 1104c14:	d65f03c0 	ret

0000000001104c18 <thread_cpu_suspend_handler>:
 1104c18:	d2800000 	mov	x0, #0x0                   	// #0
 1104c1c:	d65f03c0 	ret

0000000001104c20 <thread_cpu_resume_handler>:
 1104c20:	d2800000 	mov	x0, #0x0                   	// #0
 1104c24:	d65f03c0 	ret

0000000001104c28 <thread_system_off_handler>:
 1104c28:	d2800000 	mov	x0, #0x0                   	// #0
 1104c2c:	d65f03c0 	ret

0000000001104c30 <thread_check_canaries>:
{
 1104c30:	d10083ff 	sub	sp, sp, #0x20
 1104c34:	90000460 	adrp	x0, 1190000 <stack_thread+0x3e00>
		if (*canary != START_CANARY_VALUE)
 1104c38:	529bdbc4 	mov	w4, #0xdede                	// #57054
		if (*canary != END_CANARY_VALUE)
 1104c3c:	52957565 	mov	w5, #0xabab                	// #43947
 1104c40:	910a0002 	add	x2, x0, #0x280
	for (n = 0; n < ARRAY_SIZE(stack_tmp); n++) {
 1104c44:	d2800007 	mov	x7, #0x0                   	// #0
 1104c48:	d2810803 	mov	x3, #0x840                 	// #2112
		if (*canary != START_CANARY_VALUE)
 1104c4c:	72bbdbc4 	movk	w4, #0xdede, lsl #16
		if (*canary != END_CANARY_VALUE)
 1104c50:	72b57565 	movk	w5, #0xabab, lsl #16
{
 1104c54:	a9017bfd 	stp	x29, x30, [sp, #16]
 1104c58:	910043fd 	add	x29, sp, #0x10
		if (*canary != START_CANARY_VALUE)
 1104c5c:	b9400046 	ldr	w6, [x2]
 1104c60:	9b037ce1 	mul	x1, x7, x3
 1104c64:	6b0400df 	cmp	w6, w4
 1104c68:	540002c0 	b.eq	1104cc0 <thread_check_canaries+0x90>  // b.none
		canary = &GET_START_CANARY(stack_tmp, n);
 1104c6c:	910a0000 	add	x0, x0, #0x280
			CANARY_DIED(stack_tmp, start, n, canary);
 1104c70:	52800023 	mov	w3, #0x1                   	// #1
		canary = &GET_START_CANARY(stack_tmp, n);
 1104c74:	8b000020 	add	x0, x1, x0
			CANARY_DIED(stack_tmp, start, n, canary);
 1104c78:	f90003e0 	str	x0, [sp]
 1104c7c:	52800022 	mov	w2, #0x1                   	// #1
 1104c80:	52800001 	mov	w1, #0x0                   	// #0
 1104c84:	b0000266 	adrp	x6, 1151000 <small_prime+0x168>
 1104c88:	d0000265 	adrp	x5, 1152000 <trace_ext_prefix+0x2e>
 1104c8c:	9110e4c6 	add	x6, x6, #0x439
 1104c90:	9109eca5 	add	x5, x5, #0x27b
 1104c94:	b0000264 	adrp	x4, 1151000 <small_prime+0x168>
 1104c98:	d2800000 	mov	x0, #0x0                   	// #0
 1104c9c:	91110c84 	add	x4, x4, #0x443
 1104ca0:	94010029 	bl	1144d44 <trace_printf>
 1104ca4:	b0000262 	adrp	x2, 1151000 <small_prime+0x168>
 1104ca8:	91208442 	add	x2, x2, #0x821
 1104cac:	d2800003 	mov	x3, #0x0                   	// #0
 1104cb0:	52801ae1 	mov	w1, #0xd7                  	// #215
			CANARY_DIED(stack_tmp, end, n, canary);
 1104cb4:	b0000260 	adrp	x0, 1151000 <small_prime+0x168>
 1104cb8:	91106c00 	add	x0, x0, #0x41b
 1104cbc:	940039eb 	bl	1113468 <__do_panic>
		if (*canary != END_CANARY_VALUE)
 1104cc0:	b9483c46 	ldr	w6, [x2, #2108]
 1104cc4:	6b0500df 	cmp	w6, w5
 1104cc8:	540002a0 	b.eq	1104d1c <thread_check_canaries+0xec>  // b.none
		canary = &GET_END_CANARY(stack_tmp, n);
 1104ccc:	9120f021 	add	x1, x1, #0x83c
 1104cd0:	910a0000 	add	x0, x0, #0x280
 1104cd4:	8b000020 	add	x0, x1, x0
			CANARY_DIED(stack_tmp, end, n, canary);
 1104cd8:	f90003e0 	str	x0, [sp]
 1104cdc:	52800023 	mov	w3, #0x1                   	// #1
 1104ce0:	52800022 	mov	w2, #0x1                   	// #1
 1104ce4:	52800001 	mov	w1, #0x0                   	// #0
 1104ce8:	b0000266 	adrp	x6, 1151000 <small_prime+0x168>
 1104cec:	b00002a5 	adrp	x5, 1159000 <Worder+0x2854>
 1104cf0:	9110e4c6 	add	x6, x6, #0x439
 1104cf4:	9131c0a5 	add	x5, x5, #0xc70
 1104cf8:	b0000264 	adrp	x4, 1151000 <small_prime+0x168>
 1104cfc:	d2800000 	mov	x0, #0x0                   	// #0
 1104d00:	91110c84 	add	x4, x4, #0x443
 1104d04:	94010010 	bl	1144d44 <trace_printf>
 1104d08:	b0000262 	adrp	x2, 1151000 <small_prime+0x168>
 1104d0c:	d2800003 	mov	x3, #0x0                   	// #0
 1104d10:	91208442 	add	x2, x2, #0x821
 1104d14:	52801b41 	mov	w1, #0xda                  	// #218
 1104d18:	17ffffe7 	b	1104cb4 <thread_check_canaries+0x84>
	for (n = 0; n < ARRAY_SIZE(stack_tmp); n++) {
 1104d1c:	910004e7 	add	x7, x7, #0x1
 1104d20:	91210042 	add	x2, x2, #0x840
 1104d24:	f10010ff 	cmp	x7, #0x4
 1104d28:	54fff9a1 	b.ne	1104c5c <thread_check_canaries+0x2c>  // b.any
 1104d2c:	b0000420 	adrp	x0, 1189000 <l1_xlation_table>
		if (*canary != START_CANARY_VALUE)
 1104d30:	529bdbc4 	mov	w4, #0xdede                	// #57054
		if (*canary != END_CANARY_VALUE)
 1104d34:	52957563 	mov	w3, #0xabab                	// #43947
 1104d38:	91040002 	add	x2, x0, #0x100
	for (n = 0; n < ARRAY_SIZE(stack_abt); n++) {
 1104d3c:	d2800007 	mov	x7, #0x0                   	// #0
 1104d40:	d2818805 	mov	x5, #0xc40                 	// #3136
		if (*canary != START_CANARY_VALUE)
 1104d44:	72bbdbc4 	movk	w4, #0xdede, lsl #16
		if (*canary != END_CANARY_VALUE)
 1104d48:	72b57563 	movk	w3, #0xabab, lsl #16
		if (*canary != START_CANARY_VALUE)
 1104d4c:	b9400046 	ldr	w6, [x2]
 1104d50:	9b057ce1 	mul	x1, x7, x5
 1104d54:	6b0400df 	cmp	w6, w4
 1104d58:	54000280 	b.eq	1104da8 <thread_check_canaries+0x178>  // b.none
		canary = &GET_START_CANARY(stack_abt, n);
 1104d5c:	91040000 	add	x0, x0, #0x100
			CANARY_DIED(stack_abt, start, n, canary);
 1104d60:	52800023 	mov	w3, #0x1                   	// #1
		canary = &GET_START_CANARY(stack_abt, n);
 1104d64:	8b000020 	add	x0, x1, x0
			CANARY_DIED(stack_abt, start, n, canary);
 1104d68:	f90003e0 	str	x0, [sp]
 1104d6c:	52800022 	mov	w2, #0x1                   	// #1
 1104d70:	52800001 	mov	w1, #0x0                   	// #0
 1104d74:	b0000266 	adrp	x6, 1151000 <small_prime+0x168>
 1104d78:	d0000265 	adrp	x5, 1152000 <trace_ext_prefix+0x2e>
 1104d7c:	91119cc6 	add	x6, x6, #0x467
 1104d80:	9109eca5 	add	x5, x5, #0x27b
 1104d84:	b0000264 	adrp	x4, 1151000 <small_prime+0x168>
 1104d88:	d2800000 	mov	x0, #0x0                   	// #0
 1104d8c:	91110c84 	add	x4, x4, #0x443
 1104d90:	9400ffed 	bl	1144d44 <trace_printf>
 1104d94:	b0000262 	adrp	x2, 1151000 <small_prime+0x168>
 1104d98:	d2800003 	mov	x3, #0x0                   	// #0
 1104d9c:	91208442 	add	x2, x2, #0x821
 1104da0:	52801c01 	mov	w1, #0xe0                  	// #224
 1104da4:	17ffffc4 	b	1104cb4 <thread_check_canaries+0x84>
		if (*canary != END_CANARY_VALUE)
 1104da8:	b94c3c46 	ldr	w6, [x2, #3132]
 1104dac:	6b0300df 	cmp	w6, w3
 1104db0:	540002a0 	b.eq	1104e04 <thread_check_canaries+0x1d4>  // b.none
		canary = &GET_END_CANARY(stack_abt, n);
 1104db4:	9130f021 	add	x1, x1, #0xc3c
 1104db8:	91040000 	add	x0, x0, #0x100
 1104dbc:	8b000020 	add	x0, x1, x0
			CANARY_DIED(stack_abt, end, n, canary);
 1104dc0:	f90003e0 	str	x0, [sp]
 1104dc4:	52800023 	mov	w3, #0x1                   	// #1
 1104dc8:	52800022 	mov	w2, #0x1                   	// #1
 1104dcc:	52800001 	mov	w1, #0x0                   	// #0
 1104dd0:	b0000266 	adrp	x6, 1151000 <small_prime+0x168>
 1104dd4:	b00002a5 	adrp	x5, 1159000 <Worder+0x2854>
 1104dd8:	91119cc6 	add	x6, x6, #0x467
 1104ddc:	9131c0a5 	add	x5, x5, #0xc70
 1104de0:	b0000264 	adrp	x4, 1151000 <small_prime+0x168>
 1104de4:	d2800000 	mov	x0, #0x0                   	// #0
 1104de8:	91110c84 	add	x4, x4, #0x443
 1104dec:	9400ffd6 	bl	1144d44 <trace_printf>
 1104df0:	b0000262 	adrp	x2, 1151000 <small_prime+0x168>
 1104df4:	d2800003 	mov	x3, #0x0                   	// #0
 1104df8:	91208442 	add	x2, x2, #0x821
 1104dfc:	52801c61 	mov	w1, #0xe3                  	// #227
 1104e00:	17ffffad 	b	1104cb4 <thread_check_canaries+0x84>
	for (n = 0; n < ARRAY_SIZE(stack_abt); n++) {
 1104e04:	910004e7 	add	x7, x7, #0x1
 1104e08:	91310042 	add	x2, x2, #0xc40
 1104e0c:	f10010ff 	cmp	x7, #0x4
 1104e10:	54fff9e1 	b.ne	1104d4c <thread_check_canaries+0x11c>  // b.any
		if (*canary != START_CANARY_VALUE)
 1104e14:	90000441 	adrp	x1, 118c000 <__nozi_end+0x2f00>
 1104e18:	91080020 	add	x0, x1, #0x200
 1104e1c:	b9420021 	ldr	w1, [x1, #512]
 1104e20:	6b04003f 	cmp	w1, w4
 1104e24:	540001e1 	b.ne	1104e60 <thread_check_canaries+0x230>  // b.any
		if (*canary != END_CANARY_VALUE)
 1104e28:	b9603c01 	ldr	w1, [x0, #8252]
 1104e2c:	6b03003f 	cmp	w1, w3
 1104e30:	54000441 	b.ne	1104eb8 <thread_check_canaries+0x288>  // b.any
		if (*canary != START_CANARY_VALUE)
 1104e34:	b9604001 	ldr	w1, [x0, #8256]
 1104e38:	6b04003f 	cmp	w1, w4
 1104e3c:	54000361 	b.ne	1104ea8 <thread_check_canaries+0x278>  // b.any
		if (*canary != END_CANARY_VALUE)
 1104e40:	91401000 	add	x0, x0, #0x4, lsl #12
 1104e44:	b9407c00 	ldr	w0, [x0, #124]
 1104e48:	6b03001f 	cmp	w0, w3
 1104e4c:	540005e0 	b.eq	1104f08 <thread_check_canaries+0x2d8>  // b.none
		canary = &GET_END_CANARY(stack_thread, n);
 1104e50:	90000460 	adrp	x0, 1190000 <stack_thread+0x3e00>
	for (n = 0; n < ARRAY_SIZE(stack_thread); n++) {
 1104e54:	d2800027 	mov	x7, #0x1                   	// #1
		canary = &GET_END_CANARY(stack_thread, n);
 1104e58:	9109f000 	add	x0, x0, #0x27c
 1104e5c:	1400001a 	b	1104ec4 <thread_check_canaries+0x294>
	for (n = 0; n < ARRAY_SIZE(stack_thread); n++) {
 1104e60:	d2800007 	mov	x7, #0x0                   	// #0
			CANARY_DIED(stack_thread, start, n, canary);
 1104e64:	f90003e0 	str	x0, [sp]
 1104e68:	52800023 	mov	w3, #0x1                   	// #1
 1104e6c:	52800022 	mov	w2, #0x1                   	// #1
 1104e70:	52800001 	mov	w1, #0x0                   	// #0
 1104e74:	b0000266 	adrp	x6, 1151000 <small_prime+0x168>
 1104e78:	d0000265 	adrp	x5, 1152000 <trace_ext_prefix+0x2e>
 1104e7c:	9111c4c6 	add	x6, x6, #0x471
 1104e80:	9109eca5 	add	x5, x5, #0x27b
 1104e84:	b0000264 	adrp	x4, 1151000 <small_prime+0x168>
 1104e88:	d2800000 	mov	x0, #0x0                   	// #0
 1104e8c:	91110c84 	add	x4, x4, #0x443
 1104e90:	9400ffad 	bl	1144d44 <trace_printf>
 1104e94:	b0000262 	adrp	x2, 1151000 <small_prime+0x168>
 1104e98:	d2800003 	mov	x3, #0x0                   	// #0
 1104e9c:	91208442 	add	x2, x2, #0x821
 1104ea0:	52801d41 	mov	w1, #0xea                  	// #234
 1104ea4:	17ffff84 	b	1104cb4 <thread_check_canaries+0x84>
		canary = &GET_START_CANARY(stack_thread, n);
 1104ea8:	d0000440 	adrp	x0, 118e000 <stack_thread+0x1e00>
	for (n = 0; n < ARRAY_SIZE(stack_thread); n++) {
 1104eac:	d2800027 	mov	x7, #0x1                   	// #1
		canary = &GET_START_CANARY(stack_thread, n);
 1104eb0:	91090000 	add	x0, x0, #0x240
 1104eb4:	17ffffec 	b	1104e64 <thread_check_canaries+0x234>
		canary = &GET_END_CANARY(stack_thread, n);
 1104eb8:	d0000440 	adrp	x0, 118e000 <stack_thread+0x1e00>
 1104ebc:	9108f000 	add	x0, x0, #0x23c
	for (n = 0; n < ARRAY_SIZE(stack_thread); n++) {
 1104ec0:	d2800007 	mov	x7, #0x0                   	// #0
			CANARY_DIED(stack_thread, end, n, canary);
 1104ec4:	f90003e0 	str	x0, [sp]
 1104ec8:	52800023 	mov	w3, #0x1                   	// #1
 1104ecc:	52800022 	mov	w2, #0x1                   	// #1
 1104ed0:	52800001 	mov	w1, #0x0                   	// #0
 1104ed4:	b0000266 	adrp	x6, 1151000 <small_prime+0x168>
 1104ed8:	b00002a5 	adrp	x5, 1159000 <Worder+0x2854>
 1104edc:	9111c4c6 	add	x6, x6, #0x471
 1104ee0:	9131c0a5 	add	x5, x5, #0xc70
 1104ee4:	b0000264 	adrp	x4, 1151000 <small_prime+0x168>
 1104ee8:	d2800000 	mov	x0, #0x0                   	// #0
 1104eec:	91110c84 	add	x4, x4, #0x443
 1104ef0:	9400ff95 	bl	1144d44 <trace_printf>
 1104ef4:	b0000262 	adrp	x2, 1151000 <small_prime+0x168>
 1104ef8:	d2800003 	mov	x3, #0x0                   	// #0
 1104efc:	91208442 	add	x2, x2, #0x821
 1104f00:	52801da1 	mov	w1, #0xed                  	// #237
 1104f04:	17ffff6c 	b	1104cb4 <thread_check_canaries+0x84>
}
 1104f08:	a9417bfd 	ldp	x29, x30, [sp, #16]
 1104f0c:	910083ff 	add	sp, sp, #0x20
 1104f10:	d65f03c0 	ret

0000000001104f14 <thread_get_exceptions>:
DEFINE_U32_REG_READWRITE_FUNCS(daif)
 1104f14:	d53b4220 	mrs	x0, daif
}
 1104f18:	53062000 	ubfx	w0, w0, #6, #3
 1104f1c:	d65f03c0 	ret

0000000001104f20 <thread_lock_global>:
{
 1104f20:	a9bc7bfd 	stp	x29, x30, [sp, #-64]!
 1104f24:	910003fd 	mov	x29, sp
 1104f28:	a90153f3 	stp	x19, x20, [sp, #16]
 1104f2c:	a9025bf5 	stp	x21, x22, [sp, #32]
 1104f30:	f9001bf7 	str	x23, [sp, #48]
 1104f34:	97fffff8 	bl	1104f14 <thread_get_exceptions>
					  unsigned int *lock)
{
	unsigned int retries = 0;
	unsigned int reminder = 0;

	assert(thread_foreign_intr_disabled());
 1104f38:	36080200 	tbz	w0, #1, 1104f78 <thread_lock_global+0x58>

	while (__cpu_spin_trylock(lock)) {
 1104f3c:	90000334 	adrp	x20, 1168000 <data.5093+0x9e28>
		retries++;
		if (!retries) {
			/* wrapped, time to report */
			trace_printf(func, line, TRACE_ERROR, true,
 1104f40:	b0000276 	adrp	x22, 1151000 <small_prime+0x168>
	while (__cpu_spin_trylock(lock)) {
 1104f44:	91288294 	add	x20, x20, #0xa20
			trace_printf(func, line, TRACE_ERROR, true,
 1104f48:	911316d6 	add	x22, x22, #0x4c5
 1104f4c:	52800013 	mov	w19, #0x0                   	// #0
		if (!retries) {
 1104f50:	d2c00037 	mov	x23, #0x100000000           	// #4294967296
	unsigned int reminder = 0;
 1104f54:	d2800015 	mov	x21, #0x0                   	// #0
	while (__cpu_spin_trylock(lock)) {
 1104f58:	aa1403e0 	mov	x0, x20
 1104f5c:	97fffd52 	bl	11044a4 <__cpu_spin_trylock>
 1104f60:	350001e0 	cbnz	w0, 1104f9c <thread_lock_global+0x7c>
}
 1104f64:	a94153f3 	ldp	x19, x20, [sp, #16]
 1104f68:	a9425bf5 	ldp	x21, x22, [sp, #32]
 1104f6c:	f9401bf7 	ldr	x23, [sp, #48]
 1104f70:	a8c47bfd 	ldp	x29, x30, [sp], #64
			if (reminder < UINT_MAX)
				reminder++;
		}
	}

	spinlock_count_incr();
 1104f74:	17fffd55 	b	11044c8 <spinlock_count_incr>
	assert(thread_foreign_intr_disabled());
 1104f78:	b0000263 	adrp	x3, 1151000 <small_prime+0x168>
 1104f7c:	b0000261 	adrp	x1, 1151000 <small_prime+0x168>
 1104f80:	911fe863 	add	x3, x3, #0x7fa
 1104f84:	9111f821 	add	x1, x1, #0x47e
 1104f88:	b0000260 	adrp	x0, 1151000 <small_prime+0x168>
 1104f8c:	91129800 	add	x0, x0, #0x4a6
 1104f90:	528006e2 	mov	w2, #0x37                  	// #55
 1104f94:	940034c6 	bl	11122ac <_assert_log>
 1104f98:	940034d6 	bl	11122f0 <_assert_break>
		if (!retries) {
 1104f9c:	910006b5 	add	x21, x21, #0x1
 1104fa0:	eb1702bf 	cmp	x21, x23
 1104fa4:	54fffda1 	b.ne	1104f58 <thread_lock_global+0x38>  // b.any
			trace_printf(func, line, TRACE_ERROR, true,
 1104fa8:	2a1303e5 	mov	w5, w19
 1104fac:	aa1603e4 	mov	x4, x22
 1104fb0:	52800023 	mov	w3, #0x1                   	// #1
 1104fb4:	52800022 	mov	w2, #0x1                   	// #1
 1104fb8:	52801ea1 	mov	w1, #0xf5                  	// #245
 1104fbc:	b0000260 	adrp	x0, 1151000 <small_prime+0x168>
 1104fc0:	9120dc00 	add	x0, x0, #0x837
 1104fc4:	9400ff60 	bl	1144d44 <trace_printf>
			if (reminder < UINT_MAX)
 1104fc8:	3100067f 	cmn	w19, #0x1
 1104fcc:	54fffc40 	b.eq	1104f54 <thread_lock_global+0x34>  // b.none
				reminder++;
 1104fd0:	11000673 	add	w19, w19, #0x1
 1104fd4:	17ffffe0 	b	1104f54 <thread_lock_global+0x34>

0000000001104fd8 <get_core_pos>:
#include <types_ext.h>

size_t __get_core_pos(void);

static inline size_t __noprof get_core_pos(void)
{
 1104fd8:	a9bf7bfd 	stp	x29, x30, [sp, #-16]!
 1104fdc:	910003fd 	mov	x29, sp
	/*
	 * Foreign interrupts must be disabled before playing with current
	 * core since we otherwise may be rescheduled to a different core.
	 */
	assert(thread_get_exceptions() & THREAD_EXCP_FOREIGN_INTR);
 1104fe0:	97ffffcd 	bl	1104f14 <thread_get_exceptions>
 1104fe4:	37080140 	tbnz	w0, #1, 110500c <get_core_pos+0x34>
 1104fe8:	b0000263 	adrp	x3, 1151000 <small_prime+0x168>
 1104fec:	b0000261 	adrp	x1, 1151000 <small_prime+0x168>
 1104ff0:	911f5463 	add	x3, x3, #0x7d5
 1104ff4:	9113b021 	add	x1, x1, #0x4ec
 1104ff8:	b0000260 	adrp	x0, 1151000 <small_prime+0x168>
 1104ffc:	91144000 	add	x0, x0, #0x510
 1105000:	528002c2 	mov	w2, #0x16                  	// #22
 1105004:	940034aa 	bl	11122ac <_assert_log>
 1105008:	940034ba 	bl	11122f0 <_assert_break>
	return __get_core_pos();
}
 110500c:	a8c17bfd 	ldp	x29, x30, [sp], #16
	return __get_core_pos();
 1105010:	17fff251 	b	1101954 <__get_core_pos>

0000000001105014 <get_core_local>:
{
 1105014:	2a0003e1 	mov	w1, w0
 1105018:	a9bf7bfd 	stp	x29, x30, [sp, #-16]!
 110501c:	910003fd 	mov	x29, sp
	assert(thread_get_exceptions() & THREAD_EXCP_FOREIGN_INTR);
 1105020:	97ffffbd 	bl	1104f14 <thread_get_exceptions>
 1105024:	37080140 	tbnz	w0, #1, 110504c <get_core_local+0x38>
 1105028:	90000263 	adrp	x3, 1151000 <small_prime+0x168>
 110502c:	90000261 	adrp	x1, 1151000 <small_prime+0x168>
 1105030:	90000260 	adrp	x0, 1151000 <small_prime+0x168>
 1105034:	91212863 	add	x3, x3, #0x84a
 1105038:	91106c21 	add	x1, x1, #0x41b
 110503c:	91144000 	add	x0, x0, #0x510
 1105040:	528028a2 	mov	w2, #0x145                 	// #325
	assert(pos < CFG_TEE_CORE_NB_CORE);
 1105044:	9400349a 	bl	11122ac <_assert_log>
 1105048:	940034aa 	bl	11122f0 <_assert_break>
 110504c:	71000c3f 	cmp	w1, #0x3
 1105050:	54000129 	b.ls	1105074 <get_core_local+0x60>  // b.plast
 1105054:	90000263 	adrp	x3, 1151000 <small_prime+0x168>
 1105058:	90000261 	adrp	x1, 1151000 <small_prime+0x168>
 110505c:	90000260 	adrp	x0, 1151000 <small_prime+0x168>
 1105060:	91212863 	add	x3, x3, #0x84a
 1105064:	91106c21 	add	x1, x1, #0x41b
 1105068:	91150c00 	add	x0, x0, #0x543
 110506c:	528028e2 	mov	w2, #0x147                 	// #327
 1105070:	17fffff5 	b	1105044 <get_core_local+0x30>
	return &thread_core_local[pos];
 1105074:	b00002a0 	adrp	x0, 115a000 <__scattered_array_1phys_mem_map+0x8>
 1105078:	d37a7c21 	ubfiz	x1, x1, #6, #32
}
 110507c:	a8c17bfd 	ldp	x29, x30, [sp], #16
 1105080:	f9421000 	ldr	x0, [x0, #1056]
 1105084:	8b010000 	add	x0, x0, x1
 1105088:	d65f03c0 	ret

000000000110508c <thread_unlock_global>:
{
 110508c:	a9bf7bfd 	stp	x29, x30, [sp, #-16]!
 1105090:	910003fd 	mov	x29, sp
 1105094:	97ffffa0 	bl	1104f14 <thread_get_exceptions>
	return !rc;
}

static inline void cpu_spin_unlock(unsigned int *lock)
{
	assert(thread_foreign_intr_disabled());
 1105098:	37080140 	tbnz	w0, #1, 11050c0 <thread_unlock_global+0x34>
 110509c:	90000263 	adrp	x3, 1151000 <small_prime+0x168>
 11050a0:	90000261 	adrp	x1, 1151000 <small_prime+0x168>
 11050a4:	91204463 	add	x3, x3, #0x811
 11050a8:	9111f821 	add	x1, x1, #0x47e
 11050ac:	90000260 	adrp	x0, 1151000 <small_prime+0x168>
 11050b0:	91129800 	add	x0, x0, #0x4a6
 11050b4:	52800b82 	mov	w2, #0x5c                  	// #92
 11050b8:	9400347d 	bl	11122ac <_assert_log>
 11050bc:	9400348d 	bl	11122f0 <_assert_break>
	__cpu_spin_unlock(lock);
 11050c0:	f0000300 	adrp	x0, 1168000 <data.5093+0x9e28>
 11050c4:	91288000 	add	x0, x0, #0xa20
 11050c8:	97fffcfe 	bl	11044c0 <__cpu_spin_unlock>
}
 11050cc:	a8c17bfd 	ldp	x29, x30, [sp], #16
	spinlock_count_decr();
 11050d0:	17fffd10 	b	1104510 <spinlock_count_decr>

00000000011050d4 <thread_set_exceptions>:
{
 11050d4:	a9be7bfd 	stp	x29, x30, [sp, #-32]!
 11050d8:	910003fd 	mov	x29, sp
 11050dc:	a90153f3 	stp	x19, x20, [sp, #16]
 11050e0:	2a0003f3 	mov	w19, w0
 11050e4:	d53b4234 	mrs	x20, daif
	if (!(exceptions & THREAD_EXCP_FOREIGN_INTR))
 11050e8:	370801b3 	tbnz	w19, #1, 110511c <thread_set_exceptions+0x48>
	assert(!have_spinlock());
 11050ec:	97fffd1b 	bl	1104558 <have_spinlock>
 11050f0:	72001c1f 	tst	w0, #0xff
 11050f4:	54000140 	b.eq	110511c <thread_set_exceptions+0x48>  // b.none
 11050f8:	90000263 	adrp	x3, 1151000 <small_prime+0x168>
 11050fc:	90000261 	adrp	x1, 1151000 <small_prime+0x168>
 1105100:	911f8863 	add	x3, x3, #0x7e2
 1105104:	9111f821 	add	x1, x1, #0x47e
 1105108:	90000260 	adrp	x0, 1151000 <small_prime+0x168>
 110510c:	91157800 	add	x0, x0, #0x55e
 1105110:	52800322 	mov	w2, #0x19                  	// #25
 1105114:	94003466 	bl	11122ac <_assert_log>
 1105118:	94003476 	bl	11122f0 <_assert_break>
	daif &= ~(THREAD_EXCP_ALL << DAIF_F_SHIFT);
 110511c:	12177294 	and	w20, w20, #0xfffffe3f
	daif |= ((exceptions & THREAD_EXCP_ALL) << DAIF_F_SHIFT);
 1105120:	531a0a73 	ubfiz	w19, w19, #6, #3
 1105124:	2a140273 	orr	w19, w19, w20
 1105128:	d51b4233 	msr	daif, x19
}
 110512c:	a94153f3 	ldp	x19, x20, [sp, #16]
 1105130:	a8c27bfd 	ldp	x29, x30, [sp], #32
 1105134:	d65f03c0 	ret

0000000001105138 <thread_mask_exceptions>:
{
 1105138:	a9be7bfd 	stp	x29, x30, [sp, #-32]!
 110513c:	2a0003e1 	mov	w1, w0
 1105140:	910003fd 	mov	x29, sp
 1105144:	f9000bf3 	str	x19, [sp, #16]
	uint32_t state = thread_get_exceptions();
 1105148:	97ffff73 	bl	1104f14 <thread_get_exceptions>
	thread_set_exceptions(state | (exceptions & THREAD_EXCP_ALL));
 110514c:	12000821 	and	w1, w1, #0x7
	uint32_t state = thread_get_exceptions();
 1105150:	2a0003f3 	mov	w19, w0
	thread_set_exceptions(state | (exceptions & THREAD_EXCP_ALL));
 1105154:	2a000020 	orr	w0, w1, w0
 1105158:	97ffffdf 	bl	11050d4 <thread_set_exceptions>
}
 110515c:	2a1303e0 	mov	w0, w19
 1105160:	f9400bf3 	ldr	x19, [sp, #16]
 1105164:	a8c27bfd 	ldp	x29, x30, [sp], #32
 1105168:	d65f03c0 	ret

000000000110516c <thread_unmask_exceptions>:
	thread_set_exceptions(state & THREAD_EXCP_ALL);
 110516c:	12000800 	and	w0, w0, #0x7
 1105170:	17ffffd9 	b	11050d4 <thread_set_exceptions>

0000000001105174 <thread_get_core_local>:
{
 1105174:	a9bf7bfd 	stp	x29, x30, [sp, #-16]!
 1105178:	910003fd 	mov	x29, sp
	unsigned int pos = get_core_pos();
 110517c:	97ffff97 	bl	1104fd8 <get_core_pos>
}
 1105180:	a8c17bfd 	ldp	x29, x30, [sp], #16
	return get_core_local(pos);
 1105184:	17ffffa4 	b	1105014 <get_core_local>

0000000001105188 <thread_clr_boot_thread>:
{
 1105188:	a9bf7bfd 	stp	x29, x30, [sp, #-16]!
 110518c:	910003fd 	mov	x29, sp
	struct thread_core_local *l = thread_get_core_local();
 1105190:	97fffff9 	bl	1105174 <thread_get_core_local>
	assert(l->curr_thread >= 0 && l->curr_thread < CFG_NUM_THREADS);
 1105194:	79405002 	ldrh	w2, [x0, #40]
 1105198:	79805001 	ldrsh	x1, [x0, #40]
 110519c:	7100045f 	cmp	w2, #0x1
 11051a0:	54000149 	b.ls	11051c8 <thread_clr_boot_thread+0x40>  // b.plast
 11051a4:	90000263 	adrp	x3, 1151000 <small_prime+0x168>
 11051a8:	90000261 	adrp	x1, 1151000 <small_prime+0x168>
 11051ac:	90000260 	adrp	x0, 1151000 <small_prime+0x168>
 11051b0:	9121d063 	add	x3, x3, #0x874
 11051b4:	91106c21 	add	x1, x1, #0x41b
 11051b8:	9115bc00 	add	x0, x0, #0x56f
 11051bc:	52804262 	mov	w2, #0x213                 	// #531
	assert(threads[l->curr_thread].state == THREAD_STATE_ACTIVE);
 11051c0:	9400343b 	bl	11122ac <_assert_log>
 11051c4:	9400344b 	bl	11122f0 <_assert_break>
 11051c8:	b00002a2 	adrp	x2, 115a000 <__scattered_array_1phys_mem_map+0x8>
 11051cc:	d280e003 	mov	x3, #0x700                 	// #1792
 11051d0:	f9417842 	ldr	x2, [x2, #752]
 11051d4:	9b030821 	madd	x1, x1, x3, x2
 11051d8:	b9411822 	ldr	w2, [x1, #280]
 11051dc:	7100085f 	cmp	w2, #0x2
 11051e0:	54000120 	b.eq	1105204 <thread_clr_boot_thread+0x7c>  // b.none
 11051e4:	90000263 	adrp	x3, 1151000 <small_prime+0x168>
 11051e8:	90000261 	adrp	x1, 1151000 <small_prime+0x168>
 11051ec:	90000260 	adrp	x0, 1151000 <small_prime+0x168>
 11051f0:	9121d063 	add	x3, x3, #0x874
 11051f4:	91106c21 	add	x1, x1, #0x41b
 11051f8:	91169c00 	add	x0, x0, #0x5a7
 11051fc:	52804282 	mov	w2, #0x214                 	// #532
 1105200:	17fffff0 	b	11051c0 <thread_clr_boot_thread+0x38>
	threads[l->curr_thread].state = THREAD_STATE_FREE;
 1105204:	b901183f 	str	wzr, [x1, #280]
	l->curr_thread = THREAD_ID_INVALID;
 1105208:	12800001 	mov	w1, #0xffffffff            	// #-1
 110520c:	79005001 	strh	w1, [x0, #40]
}
 1105210:	a8c17bfd 	ldp	x29, x30, [sp], #16
 1105214:	d65f03c0 	ret

0000000001105218 <thread_get_tmp_sp>:
{
 1105218:	a9bf7bfd 	stp	x29, x30, [sp, #-16]!
 110521c:	910003fd 	mov	x29, sp
	struct thread_core_local *l = thread_get_core_local();
 1105220:	97ffffd5 	bl	1105174 <thread_get_core_local>
	l->flags |= THREAD_CLF_TMP;
 1105224:	b9402c01 	ldr	w1, [x0, #44]
 1105228:	32000021 	orr	w1, w1, #0x1
 110522c:	b9002c01 	str	w1, [x0, #44]
}
 1105230:	f9401000 	ldr	x0, [x0, #32]
 1105234:	a8c17bfd 	ldp	x29, x30, [sp], #16
 1105238:	d65f03c0 	ret

000000000110523c <thread_get_saved_thread_sp>:
{
 110523c:	a9bf7bfd 	stp	x29, x30, [sp, #-16]!
 1105240:	910003fd 	mov	x29, sp
	struct thread_core_local *l = thread_get_core_local();
 1105244:	97ffffcc 	bl	1105174 <thread_get_core_local>
	int ct = l->curr_thread;
 1105248:	79805000 	ldrsh	x0, [x0, #40]
	assert(ct != THREAD_ID_INVALID);
 110524c:	3100041f 	cmn	w0, #0x1
 1105250:	54000141 	b.ne	1105278 <thread_get_saved_thread_sp+0x3c>  // b.any
 1105254:	90000263 	adrp	x3, 1151000 <small_prime+0x168>
 1105258:	90000261 	adrp	x1, 1151000 <small_prime+0x168>
 110525c:	9122e463 	add	x3, x3, #0x8b9
 1105260:	91106c21 	add	x1, x1, #0x41b
 1105264:	90000260 	adrp	x0, 1151000 <small_prime+0x168>
 1105268:	91177000 	add	x0, x0, #0x5dc
 110526c:	52805cc2 	mov	w2, #0x2e6                 	// #742
 1105270:	9400340f 	bl	11122ac <_assert_log>
 1105274:	9400341f 	bl	11122f0 <_assert_break>
	return threads[ct].kern_sp;
 1105278:	b00002a1 	adrp	x1, 115a000 <__scattered_array_1phys_mem_map+0x8>
 110527c:	d280e002 	mov	x2, #0x700                 	// #1792
}
 1105280:	a8c17bfd 	ldp	x29, x30, [sp], #16
	return threads[ct].kern_sp;
 1105284:	f9417821 	ldr	x1, [x1, #752]
 1105288:	9b020400 	madd	x0, x0, x2, x1
}
 110528c:	f940a400 	ldr	x0, [x0, #328]
 1105290:	d65f03c0 	ret

0000000001105294 <thread_stack_size>:
}
 1105294:	d2840000 	mov	x0, #0x2000                	// #8192
 1105298:	d65f03c0 	ret

000000000110529c <get_stack_limits>:
{
 110529c:	a9bd7bfd 	stp	x29, x30, [sp, #-48]!
 11052a0:	910003fd 	mov	x29, sp
 11052a4:	a90153f3 	stp	x19, x20, [sp, #16]
 11052a8:	aa0003f4 	mov	x20, x0
	uint32_t exceptions = thread_mask_exceptions(THREAD_EXCP_FOREIGN_INTR);
 11052ac:	52800040 	mov	w0, #0x2                   	// #2
{
 11052b0:	a9025bf5 	stp	x21, x22, [sp, #32]
 11052b4:	aa0103f5 	mov	x21, x1
	uint32_t exceptions = thread_mask_exceptions(THREAD_EXCP_FOREIGN_INTR);
 11052b8:	97ffffa0 	bl	1105138 <thread_mask_exceptions>
 11052bc:	2a0003f6 	mov	w22, w0
	unsigned int pos = get_core_pos();
 11052c0:	97ffff46 	bl	1104fd8 <get_core_pos>
 11052c4:	aa0003f3 	mov	x19, x0
	struct thread_core_local *l = get_core_local(pos);
 11052c8:	97ffff53 	bl	1105014 <get_core_local>
	if (l->flags & THREAD_CLF_TMP) {
 11052cc:	b9402c01 	ldr	w1, [x0, #44]
 11052d0:	36000241 	tbz	w1, #0, 1105318 <get_stack_limits+0x7c>
		if (hard)
 11052d4:	92407e73 	and	x19, x19, #0xffffffff
 11052d8:	f0000440 	adrp	x0, 1190000 <stack_thread+0x3e00>
 11052dc:	910a0000 	add	x0, x0, #0x280
 11052e0:	d2810801 	mov	x1, #0x840                 	// #2112
 11052e4:	9b010273 	madd	x19, x19, x1, x0
 11052e8:	91004260 	add	x0, x19, #0x10
		*end = GET_STACK_BOTTOM(stack_tmp, pos);
 11052ec:	9120c273 	add	x19, x19, #0x830
 11052f0:	f9000280 	str	x0, [x20]
		*end = GET_STACK_BOTTOM(stack_abt, pos);
 11052f4:	f90002b3 	str	x19, [x21]
		ret = true;
 11052f8:	52800033 	mov	w19, #0x1                   	// #1
	thread_unmask_exceptions(exceptions);
 11052fc:	2a1603e0 	mov	w0, w22
 1105300:	97ffff9b 	bl	110516c <thread_unmask_exceptions>
}
 1105304:	2a1303e0 	mov	w0, w19
 1105308:	a94153f3 	ldp	x19, x20, [sp, #16]
 110530c:	a9425bf5 	ldp	x21, x22, [sp, #32]
 1105310:	a8c37bfd 	ldp	x29, x30, [sp], #48
 1105314:	d65f03c0 	ret
	} else if (l->flags & THREAD_CLF_ABORT) {
 1105318:	36080141 	tbz	w1, #1, 1105340 <get_stack_limits+0xa4>
		if (hard)
 110531c:	92407e73 	and	x19, x19, #0xffffffff
 1105320:	90000420 	adrp	x0, 1189000 <l1_xlation_table>
 1105324:	91040000 	add	x0, x0, #0x100
 1105328:	d2818801 	mov	x1, #0xc40                 	// #3136
 110532c:	9b010273 	madd	x19, x19, x1, x0
 1105330:	91004260 	add	x0, x19, #0x10
		*end = GET_STACK_BOTTOM(stack_abt, pos);
 1105334:	9130c273 	add	x19, x19, #0xc30
 1105338:	f9000280 	str	x0, [x20]
 110533c:	17ffffee 	b	11052f4 <get_stack_limits+0x58>
	} else if (!l->flags) {
 1105340:	350001a1 	cbnz	w1, 1105374 <get_stack_limits+0xd8>
	int ct = l->curr_thread;
 1105344:	79805002 	ldrsh	x2, [x0, #40]
		if (ct < 0 || ct >= CFG_NUM_THREADS)
 1105348:	7100045f 	cmp	w2, #0x1
 110534c:	54000148 	b.hi	1105374 <get_stack_limits+0xd8>  // b.pmore
		*end = threads[ct].stack_va_end;
 1105350:	b00002a0 	adrp	x0, 115a000 <__scattered_array_1phys_mem_map+0x8>
 1105354:	d280e001 	mov	x1, #0x700                 	// #1792
 1105358:	f9417800 	ldr	x0, [x0, #752]
 110535c:	9b010042 	madd	x2, x2, x1, x0
 1105360:	f9409041 	ldr	x1, [x2, #288]
 1105364:	f90002a1 	str	x1, [x21]
		*start = *end - STACK_THREAD_SIZE;
 1105368:	d1400821 	sub	x1, x1, #0x2, lsl #12
 110536c:	f9000281 	str	x1, [x20]
 1105370:	17ffffe2 	b	11052f8 <get_stack_limits+0x5c>
	bool ret = false;
 1105374:	52800013 	mov	w19, #0x0                   	// #0
 1105378:	17ffffe1 	b	11052fc <get_stack_limits+0x60>

000000000110537c <thread_is_from_abort_mode>:
{
 110537c:	a9bf7bfd 	stp	x29, x30, [sp, #-16]!
 1105380:	910003fd 	mov	x29, sp
	struct thread_core_local *l = thread_get_core_local();
 1105384:	97ffff7c 	bl	1105174 <thread_get_core_local>
	return (l->flags >> THREAD_CLF_SAVED_SHIFT) & THREAD_CLF_ABORT;
 1105388:	b9402c00 	ldr	w0, [x0, #44]
}
 110538c:	a8c17bfd 	ldp	x29, x30, [sp], #16
 1105390:	d3451400 	ubfx	x0, x0, #5, #1
 1105394:	d65f03c0 	ret

0000000001105398 <thread_is_in_normal_mode>:
{
 1105398:	a9be7bfd 	stp	x29, x30, [sp, #-32]!
	uint32_t exceptions = thread_mask_exceptions(THREAD_EXCP_FOREIGN_INTR);
 110539c:	52800040 	mov	w0, #0x2                   	// #2
{
 11053a0:	910003fd 	mov	x29, sp
 11053a4:	a90153f3 	stp	x19, x20, [sp, #16]
	uint32_t exceptions = thread_mask_exceptions(THREAD_EXCP_FOREIGN_INTR);
 11053a8:	97ffff64 	bl	1105138 <thread_mask_exceptions>
 11053ac:	2a0003f3 	mov	w19, w0
	struct thread_core_local *l = thread_get_core_local();
 11053b0:	97ffff71 	bl	1105174 <thread_get_core_local>
	ret = (l->curr_thread != THREAD_ID_INVALID) &&
 11053b4:	79c05001 	ldrsh	w1, [x0, #40]
 11053b8:	3100043f 	cmn	w1, #0x1
 11053bc:	54000140 	b.eq	11053e4 <thread_is_in_normal_mode+0x4c>  // b.none
	      !(l->flags & ~THREAD_CLF_TMP);
 11053c0:	b9402c00 	ldr	w0, [x0, #44]
	ret = (l->curr_thread != THREAD_ID_INVALID) &&
 11053c4:	721f781f 	tst	w0, #0xfffffffe
 11053c8:	1a9f17f4 	cset	w20, eq  // eq = none
	thread_unmask_exceptions(exceptions);
 11053cc:	2a1303e0 	mov	w0, w19
 11053d0:	97ffff67 	bl	110516c <thread_unmask_exceptions>
}
 11053d4:	2a1403e0 	mov	w0, w20
 11053d8:	a94153f3 	ldp	x19, x20, [sp, #16]
 11053dc:	a8c27bfd 	ldp	x29, x30, [sp], #32
 11053e0:	d65f03c0 	ret
	ret = (l->curr_thread != THREAD_ID_INVALID) &&
 11053e4:	52800014 	mov	w20, #0x0                   	// #0
 11053e8:	17fffff9 	b	11053cc <thread_is_in_normal_mode+0x34>

00000000011053ec <thread_get_id_may_fail>:
{
 11053ec:	a9be7bfd 	stp	x29, x30, [sp, #-32]!
	uint32_t exceptions = thread_mask_exceptions(THREAD_EXCP_FOREIGN_INTR);
 11053f0:	52800040 	mov	w0, #0x2                   	// #2
{
 11053f4:	910003fd 	mov	x29, sp
 11053f8:	a90153f3 	stp	x19, x20, [sp, #16]
	uint32_t exceptions = thread_mask_exceptions(THREAD_EXCP_FOREIGN_INTR);
 11053fc:	97ffff4f 	bl	1105138 <thread_mask_exceptions>
 1105400:	2a0003f3 	mov	w19, w0
	struct thread_core_local *l = thread_get_core_local();
 1105404:	97ffff5c 	bl	1105174 <thread_get_core_local>
	short int ct = l->curr_thread;
 1105408:	79c05014 	ldrsh	w20, [x0, #40]
	thread_unmask_exceptions(exceptions);
 110540c:	2a1303e0 	mov	w0, w19
 1105410:	97ffff57 	bl	110516c <thread_unmask_exceptions>
}
 1105414:	2a1403e0 	mov	w0, w20
 1105418:	a94153f3 	ldp	x19, x20, [sp, #16]
 110541c:	a8c27bfd 	ldp	x29, x30, [sp], #32
 1105420:	d65f03c0 	ret

0000000001105424 <thread_stack_start>:
{
 1105424:	a9bf7bfd 	stp	x29, x30, [sp, #-16]!
 1105428:	910003fd 	mov	x29, sp
	int ct = thread_get_id_may_fail();
 110542c:	97fffff0 	bl	11053ec <thread_get_id_may_fail>
 1105430:	13003c00 	sxth	w0, w0
	if (ct == THREAD_ID_INVALID)
 1105434:	3100041f 	cmn	w0, #0x1
 1105438:	54000120 	b.eq	110545c <thread_stack_start+0x38>  // b.none
	return thr->stack_va_end - STACK_THREAD_SIZE;
 110543c:	b00002a1 	adrp	x1, 115a000 <__scattered_array_1phys_mem_map+0x8>
 1105440:	5280e002 	mov	w2, #0x700                 	// #1792
 1105444:	f9417821 	ldr	x1, [x1, #752]
 1105448:	9b220400 	smaddl	x0, w0, w2, x1
 110544c:	f9409000 	ldr	x0, [x0, #288]
 1105450:	d1400800 	sub	x0, x0, #0x2, lsl #12
}
 1105454:	a8c17bfd 	ldp	x29, x30, [sp], #16
 1105458:	d65f03c0 	ret
		return 0;
 110545c:	d2800000 	mov	x0, #0x0                   	// #0
 1105460:	17fffffd 	b	1105454 <thread_stack_start+0x30>

0000000001105464 <thread_get_id>:
{
 1105464:	a9bf7bfd 	stp	x29, x30, [sp, #-16]!
 1105468:	910003fd 	mov	x29, sp
	short int ct = thread_get_id_may_fail();
 110546c:	97ffffe0 	bl	11053ec <thread_get_id_may_fail>
	assert(ct >= 0 && ct < CFG_NUM_THREADS);
 1105470:	12003c01 	and	w1, w0, #0xffff
 1105474:	7100043f 	cmp	w1, #0x1
 1105478:	54000149 	b.ls	11054a0 <thread_get_id+0x3c>  // b.plast
 110547c:	90000263 	adrp	x3, 1151000 <small_prime+0x168>
 1105480:	90000261 	adrp	x1, 1151000 <small_prime+0x168>
 1105484:	9123ec63 	add	x3, x3, #0x8fb
 1105488:	91106c21 	add	x1, x1, #0x41b
 110548c:	90000260 	adrp	x0, 1151000 <small_prime+0x168>
 1105490:	9117d000 	add	x0, x0, #0x5f4
 1105494:	52807c42 	mov	w2, #0x3e2                 	// #994
 1105498:	94003385 	bl	11122ac <_assert_log>
 110549c:	94003395 	bl	11122f0 <_assert_break>
}
 11054a0:	a8c17bfd 	ldp	x29, x30, [sp], #16
 11054a4:	d65f03c0 	ret

00000000011054a8 <thread_lazy_save_ns_vfp>:
{
 11054a8:	a9bf7bfd 	stp	x29, x30, [sp, #-16]!
 11054ac:	910003fd 	mov	x29, sp
	struct thread_ctx *thr = threads + thread_get_id();
 11054b0:	97ffffed 	bl	1105464 <thread_get_id>
 11054b4:	13003c00 	sxth	w0, w0
 11054b8:	b00002a1 	adrp	x1, 115a000 <__scattered_array_1phys_mem_map+0x8>
 11054bc:	5280e002 	mov	w2, #0x700                 	// #1792
 11054c0:	f9417821 	ldr	x1, [x1, #752]
 11054c4:	9b220400 	smaddl	x0, w0, w2, x1
	vfp_lazy_save_state_init(&thr->vfp_state.ns);
 11054c8:	91058000 	add	x0, x0, #0x160
	thr->vfp_state.ns_saved = false;
 11054cc:	381f001f 	sturb	wzr, [x0, #-16]
}
 11054d0:	a8c17bfd 	ldp	x29, x30, [sp], #16
	vfp_lazy_save_state_init(&thr->vfp_state.ns);
 11054d4:	140009b6 	b	1107bac <vfp_lazy_save_state_init>

00000000011054d8 <thread_resume_from_rpc>:
{
 11054d8:	a9ba7bfd 	stp	x29, x30, [sp, #-96]!
 11054dc:	910003fd 	mov	x29, sp
 11054e0:	a90153f3 	stp	x19, x20, [sp, #16]
 11054e4:	2a0003f4 	mov	w20, w0
 11054e8:	a9025bf5 	stp	x21, x22, [sp, #32]
 11054ec:	a90363f7 	stp	x23, x24, [sp, #48]
 11054f0:	2a0303f8 	mov	w24, w3
 11054f4:	2a0403f7 	mov	w23, w4
 11054f8:	a9046bf9 	stp	x25, x26, [sp, #64]
 11054fc:	2a0103fa 	mov	w26, w1
 1105500:	2a0203f9 	mov	w25, w2
 1105504:	a90573fb 	stp	x27, x28, [sp, #80]
	struct thread_core_local *l = thread_get_core_local();
 1105508:	97ffff1b 	bl	1105174 <thread_get_core_local>
 110550c:	aa0003f6 	mov	x22, x0
	assert(l->curr_thread == THREAD_ID_INVALID);
 1105510:	79c05000 	ldrsh	w0, [x0, #40]
 1105514:	3100041f 	cmn	w0, #0x1
 1105518:	54000140 	b.eq	1105540 <thread_resume_from_rpc+0x68>  // b.none
 110551c:	90000263 	adrp	x3, 1151000 <small_prime+0x168>
 1105520:	90000261 	adrp	x1, 1151000 <small_prime+0x168>
 1105524:	91228863 	add	x3, x3, #0x8a2
 1105528:	91106c21 	add	x1, x1, #0x41b
 110552c:	90000260 	adrp	x0, 1151000 <small_prime+0x168>
 1105530:	91185000 	add	x0, x0, #0x614
 1105534:	528054c2 	mov	w2, #0x2a6                 	// #678
 1105538:	9400335d 	bl	11122ac <_assert_log>
 110553c:	9400336d 	bl	11122f0 <_assert_break>
	thread_lock_global();
 1105540:	97fffe78 	bl	1104f20 <thread_lock_global>
	if (n < CFG_NUM_THREADS && threads[n].state == THREAD_STATE_SUSPENDED) {
 1105544:	f100069f 	cmp	x20, #0x1
 1105548:	54000109 	b.ls	1105568 <thread_resume_from_rpc+0x90>  // b.plast
}
 110554c:	a94153f3 	ldp	x19, x20, [sp, #16]
 1105550:	a9425bf5 	ldp	x21, x22, [sp, #32]
 1105554:	a94363f7 	ldp	x23, x24, [sp, #48]
 1105558:	a9446bf9 	ldp	x25, x26, [sp, #64]
 110555c:	a94573fb 	ldp	x27, x28, [sp, #80]
 1105560:	a8c67bfd 	ldp	x29, x30, [sp], #96
	thread_unlock_global();
 1105564:	17fffeca 	b	110508c <thread_unlock_global>
	if (n < CFG_NUM_THREADS && threads[n].state == THREAD_STATE_SUSPENDED) {
 1105568:	b00002a5 	adrp	x5, 115a000 <__scattered_array_1phys_mem_map+0x8>
 110556c:	d280e01c 	mov	x28, #0x700                 	// #1792
 1105570:	f94178b5 	ldr	x21, [x5, #752]
 1105574:	9b1c569b 	madd	x27, x20, x28, x21
 1105578:	b9411b60 	ldr	w0, [x27, #280]
 110557c:	7100041f 	cmp	w0, #0x1
 1105580:	54fffe61 	b.ne	110554c <thread_resume_from_rpc+0x74>  // b.any
		threads[n].state = THREAD_STATE_ACTIVE;
 1105584:	52800040 	mov	w0, #0x2                   	// #2
 1105588:	b9011b60 	str	w0, [x27, #280]
	thread_unlock_global();
 110558c:	9bbc7e93 	umull	x19, w20, w28
 1105590:	97fffebf 	bl	110508c <thread_unlock_global>
	l->curr_thread = n;
 1105594:	790052d4 	strh	w20, [x22, #40]
	if (threads[n].have_user_map) {
 1105598:	39450360 	ldrb	w0, [x27, #320]
 110559c:	34000080 	cbz	w0, 11055ac <thread_resume_from_rpc+0xd4>
		core_mmu_set_user_map(&threads[n].user_map);
 11055a0:	9104c260 	add	x0, x19, #0x130
 11055a4:	8b0002a0 	add	x0, x21, x0
 11055a8:	94001756 	bl	110b300 <core_mmu_set_user_map>
	if (is_user_mode(&threads[n].regs))
 11055ac:	b00002a5 	adrp	x5, 115a000 <__scattered_array_1phys_mem_map+0x8>
	if (threads[n].flags & THREAD_FLAGS_COPY_ARGS_ON_RETURN) {
 11055b0:	d280e000 	mov	x0, #0x700                 	// #1792
	if (is_user_mode(&threads[n].regs))
 11055b4:	f94178a5 	ldr	x5, [x5, #752]
 11055b8:	8b050273 	add	x19, x19, x5
	if (threads[n].flags & THREAD_FLAGS_COPY_ARGS_ON_RETURN) {
 11055bc:	9b001685 	madd	x5, x20, x0, x5
 11055c0:	b94128a0 	ldr	w0, [x5, #296]
 11055c4:	360000a0 	tbz	w0, #0, 11055d8 <thread_resume_from_rpc+0x100>
		threads[n].flags &= ~THREAD_FLAGS_COPY_ARGS_ON_RETURN;
 11055c8:	121f7800 	and	w0, w0, #0xfffffffe
	regs->x[1] = a1;
 11055cc:	a901e4ba 	stp	x26, x25, [x5, #24]
	regs->x[3] = a3;
 11055d0:	a902dcb8 	stp	x24, x23, [x5, #40]
		threads[n].flags &= ~THREAD_FLAGS_COPY_ARGS_ON_RETURN;
 11055d4:	b90128a0 	str	w0, [x5, #296]
	thread_lazy_save_ns_vfp();
 11055d8:	97ffffb4 	bl	11054a8 <thread_lazy_save_ns_vfp>
	l->flags &= ~THREAD_CLF_TMP;
 11055dc:	b9402ec0 	ldr	w0, [x22, #44]
 11055e0:	121f7800 	and	w0, w0, #0xfffffffe
 11055e4:	b9002ec0 	str	w0, [x22, #44]
	thread_resume(&threads[n].regs);
 11055e8:	aa1303e0 	mov	x0, x19
 11055ec:	97fffc6d 	bl	11047a0 <thread_resume>
	panic();
 11055f0:	90000262 	adrp	x2, 1151000 <small_prime+0x168>
 11055f4:	90000260 	adrp	x0, 1151000 <small_prime+0x168>
 11055f8:	91228842 	add	x2, x2, #0x8a2
 11055fc:	91106c00 	add	x0, x0, #0x41b
 1105600:	d2800003 	mov	x3, #0x0                   	// #0
 1105604:	52805a01 	mov	w1, #0x2d0                 	// #720
 1105608:	94003798 	bl	1113468 <__do_panic>

000000000110560c <thread_alloc_and_run>:
{
 110560c:	a9bb7bfd 	stp	x29, x30, [sp, #-80]!
 1105610:	910003fd 	mov	x29, sp
 1105614:	a90153f3 	stp	x19, x20, [sp, #16]
 1105618:	a9025bf5 	stp	x21, x22, [sp, #32]
 110561c:	2a0203f6 	mov	w22, w2
 1105620:	2a0303f5 	mov	w21, w3
 1105624:	a90363f7 	stp	x23, x24, [sp, #48]
 1105628:	2a0003f8 	mov	w24, w0
 110562c:	2a0103f7 	mov	w23, w1
 1105630:	a9046bf9 	stp	x25, x26, [sp, #64]
	struct thread_core_local *l = thread_get_core_local();
 1105634:	97fffed0 	bl	1105174 <thread_get_core_local>
 1105638:	aa0003f4 	mov	x20, x0
	assert(l->curr_thread == THREAD_ID_INVALID);
 110563c:	79c05000 	ldrsh	w0, [x0, #40]
 1105640:	3100041f 	cmn	w0, #0x1
 1105644:	54000140 	b.eq	110566c <thread_alloc_and_run+0x60>  // b.none
 1105648:	90000263 	adrp	x3, 1151000 <small_prime+0x168>
 110564c:	90000261 	adrp	x1, 1151000 <small_prime+0x168>
 1105650:	91222c63 	add	x3, x3, #0x88b
 1105654:	91106c21 	add	x1, x1, #0x41b
 1105658:	90000260 	adrp	x0, 1151000 <small_prime+0x168>
 110565c:	91185000 	add	x0, x0, #0x614
 1105660:	52804442 	mov	w2, #0x222                 	// #546
 1105664:	94003312 	bl	11122ac <_assert_log>
 1105668:	94003322 	bl	11122f0 <_assert_break>
	thread_lock_global();
 110566c:	97fffe2d 	bl	1104f20 <thread_lock_global>
		if (threads[n].state == THREAD_STATE_FREE) {
 1105670:	b00002a0 	adrp	x0, 115a000 <__scattered_array_1phys_mem_map+0x8>
 1105674:	aa0003f9 	mov	x25, x0
 1105678:	f9417801 	ldr	x1, [x0, #752]
 110567c:	b9411822 	ldr	w2, [x1, #280]
 1105680:	34000522 	cbz	w2, 1105724 <thread_alloc_and_run+0x118>
 1105684:	b9481820 	ldr	w0, [x1, #2072]
 1105688:	35000520 	cbnz	w0, 110572c <thread_alloc_and_run+0x120>
	for (n = 0; n < CFG_NUM_THREADS; n++) {
 110568c:	d2800033 	mov	x19, #0x1                   	// #1
			threads[n].state = THREAD_STATE_ACTIVE;
 1105690:	f9417b20 	ldr	x0, [x25, #752]
 1105694:	d280e001 	mov	x1, #0x700                 	// #1792
			found_thread = true;
 1105698:	5280003a 	mov	w26, #0x1                   	// #1
			threads[n].state = THREAD_STATE_ACTIVE;
 110569c:	9b010260 	madd	x0, x19, x1, x0
 11056a0:	52800041 	mov	w1, #0x2                   	// #2
 11056a4:	b9011801 	str	w1, [x0, #280]
	thread_unlock_global();
 11056a8:	97fffe79 	bl	110508c <thread_unlock_global>
	if (!found_thread)
 11056ac:	3400047a 	cbz	w26, 1105738 <thread_alloc_and_run+0x12c>
	threads[n].flags = 0;
 11056b0:	d280e004 	mov	x4, #0x700                 	// #1792
	l->curr_thread = n;
 11056b4:	79005293 	strh	w19, [x20, #40]
	threads[n].flags = 0;
 11056b8:	f9417b20 	ldr	x0, [x25, #752]
 11056bc:	9b047e64 	mul	x4, x19, x4
	thread->regs.pc = (uint64_t)pc;
 11056c0:	f9415b39 	ldr	x25, [x25, #688]
	threads[n].flags = 0;
 11056c4:	8b040013 	add	x19, x0, x4
	thread->regs.cpsr = SPSR_64(SPSR_64_MODE_EL1, SPSR_64_MODE_SP_EL0,
 11056c8:	d2803081 	mov	x1, #0x184                 	// #388
 11056cc:	a9008679 	stp	x25, x1, [x19, #8]
	threads[n].flags = 0;
 11056d0:	b9012a7f 	str	wzr, [x19, #296]
	thread->regs.sp = thread->stack_va_end;
 11056d4:	f9409261 	ldr	x1, [x19, #288]
 11056d8:	f8246801 	str	x1, [x0, x4]
	thread->regs.x[1] = a1;
 11056dc:	a901de78 	stp	x24, x23, [x19, #24]
	thread->regs.x[3] = a3;
 11056e0:	a902d676 	stp	x22, x21, [x19, #40]
	thread->regs.x[5] = a5;
 11056e4:	a903fe7f 	stp	xzr, xzr, [x19, #56]
	thread->regs.x[7] = a7;
 11056e8:	a904fe7f 	stp	xzr, xzr, [x19, #72]
	thread->regs.x[29] = 0;
 11056ec:	f900827f 	str	xzr, [x19, #256]
	thread_lazy_save_ns_vfp();
 11056f0:	97ffff6e 	bl	11054a8 <thread_lazy_save_ns_vfp>
	l->flags &= ~THREAD_CLF_TMP;
 11056f4:	b9402e80 	ldr	w0, [x20, #44]
 11056f8:	121f7800 	and	w0, w0, #0xfffffffe
 11056fc:	b9002e80 	str	w0, [x20, #44]
	thread_resume(&threads[n].regs);
 1105700:	aa1303e0 	mov	x0, x19
 1105704:	97fffc27 	bl	11047a0 <thread_resume>
	panic();
 1105708:	90000262 	adrp	x2, 1151000 <small_prime+0x168>
 110570c:	90000260 	adrp	x0, 1151000 <small_prime+0x168>
 1105710:	91222c42 	add	x2, x2, #0x88b
 1105714:	91106c00 	add	x0, x0, #0x41b
 1105718:	d2800003 	mov	x3, #0x0                   	// #0
 110571c:	528047a1 	mov	w1, #0x23d                 	// #573
 1105720:	94003752 	bl	1113468 <__do_panic>
	for (n = 0; n < CFG_NUM_THREADS; n++) {
 1105724:	d2800013 	mov	x19, #0x0                   	// #0
 1105728:	17ffffda 	b	1105690 <thread_alloc_and_run+0x84>
 110572c:	d2800053 	mov	x19, #0x2                   	// #2
	bool found_thread = false;
 1105730:	5280001a 	mov	w26, #0x0                   	// #0
 1105734:	17ffffdd 	b	11056a8 <thread_alloc_and_run+0x9c>
}
 1105738:	a94153f3 	ldp	x19, x20, [sp, #16]
 110573c:	a9425bf5 	ldp	x21, x22, [sp, #32]
 1105740:	a94363f7 	ldp	x23, x24, [sp, #48]
 1105744:	a9446bf9 	ldp	x25, x26, [sp, #64]
 1105748:	a8c57bfd 	ldp	x29, x30, [sp], #80
 110574c:	d65f03c0 	ret

0000000001105750 <thread_lazy_restore_ns_vfp>:
{
 1105750:	a9be7bfd 	stp	x29, x30, [sp, #-32]!
 1105754:	910003fd 	mov	x29, sp
 1105758:	a90153f3 	stp	x19, x20, [sp, #16]
	struct thread_ctx *thr = threads + thread_get_id();
 110575c:	b00002b3 	adrp	x19, 115a000 <__scattered_array_1phys_mem_map+0x8>
 1105760:	97ffff41 	bl	1105464 <thread_get_id>
 1105764:	f9417a73 	ldr	x19, [x19, #752]
 1105768:	13003c00 	sxth	w0, w0
 110576c:	5280e001 	mov	w1, #0x700                 	// #1792
 1105770:	9b214c13 	smaddl	x19, w0, w1, x19
	assert(!thr->vfp_state.sec_lazy_saved && !thr->vfp_state.sec_saved);
 1105774:	b9415260 	ldr	w0, [x19, #336]
	struct thread_user_vfp_state *tuv = thr->vfp_state.uvfp;
 1105778:	f942c274 	ldr	x20, [x19, #1408]
	assert(!thr->vfp_state.sec_lazy_saved && !thr->vfp_state.sec_saved);
 110577c:	72183c1f 	tst	w0, #0xffff00
 1105780:	54000140 	b.eq	11057a8 <thread_lazy_restore_ns_vfp+0x58>  // b.none
 1105784:	90000263 	adrp	x3, 1151000 <small_prime+0x168>
 1105788:	90000261 	adrp	x1, 1151000 <small_prime+0x168>
 110578c:	91216463 	add	x3, x3, #0x859
 1105790:	91106c21 	add	x1, x1, #0x41b
 1105794:	90000260 	adrp	x0, 1151000 <small_prime+0x168>
 1105798:	9118e000 	add	x0, x0, #0x638
 110579c:	52803682 	mov	w2, #0x1b4                 	// #436
 11057a0:	940032c3 	bl	11122ac <_assert_log>
 11057a4:	940032d3 	bl	11122f0 <_assert_break>
	if (tuv && tuv->lazy_saved && !tuv->saved) {
 11057a8:	b4000154 	cbz	x20, 11057d0 <thread_lazy_restore_ns_vfp+0x80>
 11057ac:	39484280 	ldrb	w0, [x20, #528]
 11057b0:	34000100 	cbz	w0, 11057d0 <thread_lazy_restore_ns_vfp+0x80>
 11057b4:	39484680 	ldrb	w0, [x20, #529]
 11057b8:	350000c0 	cbnz	w0, 11057d0 <thread_lazy_restore_ns_vfp+0x80>
		vfp_lazy_save_state_final(&tuv->vfp, false /*!force_save*/);
 11057bc:	aa1403e0 	mov	x0, x20
 11057c0:	52800001 	mov	w1, #0x0                   	// #0
 11057c4:	940008fd 	bl	1107bb8 <vfp_lazy_save_state_final>
		tuv->saved = true;
 11057c8:	52800020 	mov	w0, #0x1                   	// #1
 11057cc:	39084680 	strb	w0, [x20, #529]
	vfp_lazy_restore_state(&thr->vfp_state.ns, thr->vfp_state.ns_saved);
 11057d0:	39454261 	ldrb	w1, [x19, #336]
 11057d4:	91058260 	add	x0, x19, #0x160
 11057d8:	94000916 	bl	1107c30 <vfp_lazy_restore_state>
	thr->vfp_state.ns_saved = false;
 11057dc:	3905427f 	strb	wzr, [x19, #336]
}
 11057e0:	a94153f3 	ldp	x19, x20, [sp, #16]
 11057e4:	a8c27bfd 	ldp	x29, x30, [sp], #32
 11057e8:	d65f03c0 	ret

00000000011057ec <thread_state_free>:
{
 11057ec:	a9be7bfd 	stp	x29, x30, [sp, #-32]!
 11057f0:	910003fd 	mov	x29, sp
 11057f4:	a90153f3 	stp	x19, x20, [sp, #16]
	struct thread_core_local *l = thread_get_core_local();
 11057f8:	97fffe5f 	bl	1105174 <thread_get_core_local>
	int ct = l->curr_thread;
 11057fc:	79805013 	ldrsh	x19, [x0, #40]
	assert(ct != THREAD_ID_INVALID);
 1105800:	3100067f 	cmn	w19, #0x1
 1105804:	54000141 	b.ne	110582c <thread_state_free+0x40>  // b.any
 1105808:	90000263 	adrp	x3, 1151000 <small_prime+0x168>
 110580c:	90000261 	adrp	x1, 1151000 <small_prime+0x168>
 1105810:	90000260 	adrp	x0, 1151000 <small_prime+0x168>
 1105814:	91235063 	add	x3, x3, #0x8d4
 1105818:	91106c21 	add	x1, x1, #0x41b
 110581c:	91177000 	add	x0, x0, #0x5dc
 1105820:	528068e2 	mov	w2, #0x347                 	// #839
	assert(threads[ct].state == THREAD_STATE_ACTIVE);
 1105824:	940032a2 	bl	11122ac <_assert_log>
 1105828:	940032b2 	bl	11122f0 <_assert_break>
 110582c:	aa0003f4 	mov	x20, x0
	thread_lazy_restore_ns_vfp();
 1105830:	97ffffc8 	bl	1105750 <thread_lazy_restore_ns_vfp>
	thread_lock_global();
 1105834:	97fffdbb 	bl	1104f20 <thread_lock_global>
	assert(threads[ct].state == THREAD_STATE_ACTIVE);
 1105838:	b00002a1 	adrp	x1, 115a000 <__scattered_array_1phys_mem_map+0x8>
 110583c:	d280e000 	mov	x0, #0x700                 	// #1792
 1105840:	f9417821 	ldr	x1, [x1, #752]
 1105844:	9b000661 	madd	x1, x19, x0, x1
 1105848:	b9411820 	ldr	w0, [x1, #280]
 110584c:	7100081f 	cmp	w0, #0x2
 1105850:	54000120 	b.eq	1105874 <thread_state_free+0x88>  // b.none
 1105854:	90000263 	adrp	x3, 1151000 <small_prime+0x168>
 1105858:	90000261 	adrp	x1, 1151000 <small_prime+0x168>
 110585c:	90000260 	adrp	x0, 1151000 <small_prime+0x168>
 1105860:	91235063 	add	x3, x3, #0x8d4
 1105864:	91106c21 	add	x1, x1, #0x41b
 1105868:	9119d000 	add	x0, x0, #0x674
 110586c:	52806a02 	mov	w2, #0x350                 	// #848
 1105870:	17ffffed 	b	1105824 <thread_state_free+0x38>
	threads[ct].state = THREAD_STATE_FREE;
 1105874:	b901183f 	str	wzr, [x1, #280]
	l->curr_thread = THREAD_ID_INVALID;
 1105878:	12800000 	mov	w0, #0xffffffff            	// #-1
	threads[ct].flags = 0;
 110587c:	b901283f 	str	wzr, [x1, #296]
	l->curr_thread = THREAD_ID_INVALID;
 1105880:	79005280 	strh	w0, [x20, #40]
}
 1105884:	a94153f3 	ldp	x19, x20, [sp, #16]
 1105888:	a8c27bfd 	ldp	x29, x30, [sp], #32
	thread_unlock_global();
 110588c:	17fffe00 	b	110508c <thread_unlock_global>

0000000001105890 <thread_init_threads>:
{
 1105890:	a9be7bfd 	stp	x29, x30, [sp, #-32]!
		if (!thread_init_stack(n, GET_STACK_BOTTOM(stack_thread, n)))
 1105894:	f0000421 	adrp	x1, 118c000 <__nozi_end+0x2f00>
 1105898:	b0000440 	adrp	x0, 118e000 <stack_thread+0x1e00>
{
 110589c:	910003fd 	mov	x29, sp
 11058a0:	f9000bf3 	str	x19, [sp, #16]
	threads[thread_id].stack_va_end = sp;
 11058a4:	b00002b3 	adrp	x19, 115a000 <__scattered_array_1phys_mem_map+0x8>
		if (!thread_init_stack(n, GET_STACK_BOTTOM(stack_thread, n)))
 11058a8:	91080021 	add	x1, x1, #0x200
 11058ac:	91090000 	add	x0, x0, #0x240
	threads[thread_id].stack_va_end = sp;
 11058b0:	f9417a73 	ldr	x19, [x19, #752]
		if (!thread_init_stack(n, GET_STACK_BOTTOM(stack_thread, n)))
 11058b4:	d2840602 	mov	x2, #0x2030                	// #8240
 11058b8:	8b020000 	add	x0, x0, x2
 11058bc:	8b020021 	add	x1, x1, x2
	threads[thread_id].stack_va_end = sp;
 11058c0:	f9009261 	str	x1, [x19, #288]
 11058c4:	f9041260 	str	x0, [x19, #2080]
	pgt_init();
 11058c8:	94001886 	bl	110bae0 <pgt_init>
		TAILQ_INIT(&threads[n].tsd.sess_stack);
 11058cc:	f902d67f 	str	xzr, [x19, #1448]
 11058d0:	9116a260 	add	x0, x19, #0x5a8
 11058d4:	f902da60 	str	x0, [x19, #1456]
 11058d8:	9132a260 	add	x0, x19, #0xca8
		SLIST_INIT(&threads[n].tsd.pgt_cache);
 11058dc:	f902e27f 	str	xzr, [x19, #1472]
		TAILQ_INIT(&threads[n].tsd.sess_stack);
 11058e0:	f906567f 	str	xzr, [x19, #3240]
 11058e4:	f9065a60 	str	x0, [x19, #3248]
		SLIST_INIT(&threads[n].tsd.pgt_cache);
 11058e8:	f906627f 	str	xzr, [x19, #3264]
}
 11058ec:	f9400bf3 	ldr	x19, [sp, #16]
 11058f0:	a8c27bfd 	ldp	x29, x30, [sp], #32
 11058f4:	d65f03c0 	ret

00000000011058f8 <thread_init_boot_thread>:
{
 11058f8:	a9be7bfd 	stp	x29, x30, [sp, #-32]!
 11058fc:	910003fd 	mov	x29, sp
 1105900:	f9000bf3 	str	x19, [sp, #16]
	struct thread_core_local *l = thread_get_core_local();
 1105904:	97fffe1c 	bl	1105174 <thread_get_core_local>
 1105908:	aa0003f3 	mov	x19, x0
	thread_init_threads();
 110590c:	97ffffe1 	bl	1105890 <thread_init_threads>
	threads[0].state = THREAD_STATE_ACTIVE;
 1105910:	b00002a0 	adrp	x0, 115a000 <__scattered_array_1phys_mem_map+0x8>
 1105914:	52800041 	mov	w1, #0x2                   	// #2
 1105918:	f9417800 	ldr	x0, [x0, #752]
	l->curr_thread = 0;
 110591c:	7900527f 	strh	wzr, [x19, #40]
}
 1105920:	f9400bf3 	ldr	x19, [sp, #16]
	threads[0].state = THREAD_STATE_ACTIVE;
 1105924:	b9011801 	str	w1, [x0, #280]
}
 1105928:	a8c27bfd 	ldp	x29, x30, [sp], #32
 110592c:	d65f03c0 	ret

0000000001105930 <thread_init_thread_core_local>:
		tcl[n].curr_thread = THREAD_ID_INVALID;
 1105930:	b00002a0 	adrp	x0, 115a000 <__scattered_array_1phys_mem_map+0x8>
		tcl[n].flags = THREAD_CLF_TMP;
 1105934:	52800021 	mov	w1, #0x1                   	// #1
		tcl[n].curr_thread = THREAD_ID_INVALID;
 1105938:	12800002 	mov	w2, #0xffffffff            	// #-1
 110593c:	f9421000 	ldr	x0, [x0, #1056]
		tcl[n].flags = THREAD_CLF_TMP;
 1105940:	b9002c01 	str	w1, [x0, #44]
 1105944:	b9006c01 	str	w1, [x0, #108]
 1105948:	b900ac01 	str	w1, [x0, #172]
 110594c:	b900ec01 	str	w1, [x0, #236]
	tcl[0].tmp_stack_va_end = GET_STACK_BOTTOM(stack_tmp, 0);
 1105950:	f0000441 	adrp	x1, 1190000 <stack_thread+0x3e00>
 1105954:	910a0021 	add	x1, x1, #0x280
		tcl[n].curr_thread = THREAD_ID_INVALID;
 1105958:	79005002 	strh	w2, [x0, #40]
	tcl[0].tmp_stack_va_end = GET_STACK_BOTTOM(stack_tmp, 0);
 110595c:	9120c021 	add	x1, x1, #0x830
 1105960:	f9001001 	str	x1, [x0, #32]
		tcl[n].curr_thread = THREAD_ID_INVALID;
 1105964:	7900d002 	strh	w2, [x0, #104]
 1105968:	79015002 	strh	w2, [x0, #168]
 110596c:	7901d002 	strh	w2, [x0, #232]
}
 1105970:	d65f03c0 	ret

0000000001105974 <thread_init_primary>:
{
 1105974:	a9bc7bfd 	stp	x29, x30, [sp, #-64]!
	INIT_CANARY(stack_tmp);
 1105978:	f0000440 	adrp	x0, 1190000 <stack_thread+0x3e00>
 110597c:	910a0002 	add	x2, x0, #0x280
{
 1105980:	910003fd 	mov	x29, sp
	INIT_CANARY(stack_tmp);
 1105984:	529bdbc1 	mov	w1, #0xdede                	// #57054
 1105988:	72bbdbc1 	movk	w1, #0xdede, lsl #16
 110598c:	b9028001 	str	w1, [x0, #640]
 1105990:	52957560 	mov	w0, #0xabab                	// #43947
{
 1105994:	a90153f3 	stp	x19, x20, [sp, #16]
	INIT_CANARY(stack_tmp);
 1105998:	72b57560 	movk	w0, #0xabab, lsl #16
	INIT_CANARY(stack_abt);
 110599c:	90000423 	adrp	x3, 1189000 <l1_xlation_table>
{
 11059a0:	f90013f5 	str	x21, [sp, #32]
	vaddr_t v = (vaddr_t)thread_excp_vect;
 11059a4:	b00002b3 	adrp	x19, 115a000 <__scattered_array_1phys_mem_map+0x8>
	INIT_CANARY(stack_tmp);
 11059a8:	b9083c40 	str	w0, [x2, #2108]
	thread_user_kcode_size = ve - thread_user_kcode_va;
 11059ac:	900002d4 	adrp	x20, 115d000 <_curve_names+0x590>
	INIT_CANARY(stack_tmp);
 11059b0:	b9084041 	str	w1, [x2, #2112]
	thread_user_kcode_va = ROUNDDOWN(v, CORE_MMU_USER_CODE_SIZE);
 11059b4:	900002d5 	adrp	x21, 115d000 <_curve_names+0x590>
	INIT_CANARY(stack_tmp);
 11059b8:	b9107c40 	str	w0, [x2, #4220]
 11059bc:	b9108041 	str	w1, [x2, #4224]
 11059c0:	b918bc40 	str	w0, [x2, #6332]
 11059c4:	b918c041 	str	w1, [x2, #6336]
 11059c8:	b920fc40 	str	w0, [x2, #8444]
	INIT_CANARY(stack_abt);
 11059cc:	91040062 	add	x2, x3, #0x100
 11059d0:	b9010061 	str	w1, [x3, #256]
	INIT_CANARY(stack_thread);
 11059d4:	f0000423 	adrp	x3, 118c000 <__nozi_end+0x2f00>
	INIT_CANARY(stack_abt);
 11059d8:	b90c3c40 	str	w0, [x2, #3132]
 11059dc:	b90c4041 	str	w1, [x2, #3136]
 11059e0:	b9187c40 	str	w0, [x2, #6268]
 11059e4:	b9188041 	str	w1, [x2, #6272]
 11059e8:	b924bc40 	str	w0, [x2, #9404]
 11059ec:	b924c041 	str	w1, [x2, #9408]
 11059f0:	b930fc40 	str	w0, [x2, #12540]
	INIT_CANARY(stack_thread);
 11059f4:	91080062 	add	x2, x3, #0x200
 11059f8:	b9020061 	str	w1, [x3, #512]
 11059fc:	b9203c40 	str	w0, [x2, #8252]
 1105a00:	b9204041 	str	w1, [x2, #8256]
 1105a04:	91401042 	add	x2, x2, #0x4, lsl #12
 1105a08:	b9007c40 	str	w0, [x2, #124]
	vaddr_t v = (vaddr_t)thread_excp_vect;
 1105a0c:	f9420e60 	ldr	x0, [x19, #1048]
 1105a10:	f9001fe0 	str	x0, [sp, #56]
	thread_user_kcode_va = ROUNDDOWN(v, CORE_MMU_USER_CODE_SIZE);
 1105a14:	9274cc01 	and	x1, x0, #0xfffffffffffff000
 1105a18:	f90606a1 	str	x1, [x21, #3080]
	ve = ROUNDUP(ve, CORE_MMU_USER_CODE_SIZE);
 1105a1c:	f9414a60 	ldr	x0, [x19, #656]
 1105a20:	913ffc00 	add	x0, x0, #0xfff
 1105a24:	9274cc00 	and	x0, x0, #0xfffffffffffff000
	thread_user_kcode_size = ve - thread_user_kcode_va;
 1105a28:	cb010000 	sub	x0, x0, x1
	core_mmu_get_user_va_range(&v, NULL);
 1105a2c:	d2800001 	mov	x1, #0x0                   	// #0
	thread_user_kcode_size = ve - thread_user_kcode_va;
 1105a30:	f9060280 	str	x0, [x20, #3072]
	core_mmu_get_user_va_range(&v, NULL);
 1105a34:	9100e3e0 	add	x0, sp, #0x38
 1105a38:	940015a6 	bl	110b0d0 <core_mmu_get_user_va_range>
	thread_user_kcode_offset = thread_user_kcode_va - v;
 1105a3c:	f9423262 	ldr	x2, [x19, #1120]
 1105a40:	f94606a1 	ldr	x1, [x21, #3080]
 1105a44:	f9401fe0 	ldr	x0, [sp, #56]
}
 1105a48:	f94013f5 	ldr	x21, [sp, #32]
	thread_user_kcode_offset = thread_user_kcode_va - v;
 1105a4c:	cb000021 	sub	x1, x1, x0
 1105a50:	f9000041 	str	x1, [x2]
	thread_user_kdata_sp_offset = (vaddr_t)thread_core_local - v;
 1105a54:	f941de61 	ldr	x1, [x19, #952]
 1105a58:	f9460282 	ldr	x2, [x20, #3072]
 1105a5c:	f9421273 	ldr	x19, [x19, #1056]
 1105a60:	8b020000 	add	x0, x0, x2
 1105a64:	cb000273 	sub	x19, x19, x0
 1105a68:	f9000033 	str	x19, [x1]
}
 1105a6c:	a94153f3 	ldp	x19, x20, [sp, #16]
 1105a70:	a8c47bfd 	ldp	x29, x30, [sp], #64
 1105a74:	d65f03c0 	ret

0000000001105a78 <thread_init_per_cpu>:
{
 1105a78:	a9be7bfd 	stp	x29, x30, [sp, #-32]!
 1105a7c:	910003fd 	mov	x29, sp
 1105a80:	a90153f3 	stp	x19, x20, [sp, #16]
	size_t pos = get_core_pos();
 1105a84:	97fffd55 	bl	1104fd8 <get_core_pos>
 1105a88:	aa0003f3 	mov	x19, x0
	struct thread_core_local *l = thread_get_core_local();
 1105a8c:	97fffdba 	bl	1105174 <thread_get_core_local>
	set_tmp_stack(l, GET_STACK_BOTTOM(stack_tmp, pos) - STACK_TMP_OFFS);
 1105a90:	f0000442 	adrp	x2, 1190000 <stack_thread+0x3e00>
 1105a94:	910a0042 	add	x2, x2, #0x280
 1105a98:	d2810801 	mov	x1, #0x840                 	// #2112
 1105a9c:	9b010a61 	madd	x1, x19, x1, x2
	set_abt_stack(l, GET_STACK_BOTTOM(stack_abt, pos));
 1105aa0:	d2818802 	mov	x2, #0xc40                 	// #3136
	set_tmp_stack(l, GET_STACK_BOTTOM(stack_tmp, pos) - STACK_TMP_OFFS);
 1105aa4:	9120c021 	add	x1, x1, #0x830
	l->tmp_stack_va_end = sp;
 1105aa8:	f9001001 	str	x1, [x0, #32]
	set_abt_stack(l, GET_STACK_BOTTOM(stack_abt, pos));
 1105aac:	90000421 	adrp	x1, 1189000 <l1_xlation_table>
 1105ab0:	91040021 	add	x1, x1, #0x100
 1105ab4:	9b020673 	madd	x19, x19, x2, x1
 1105ab8:	9130c273 	add	x19, x19, #0xc30
	l->abt_stack_va_end = sp;
 1105abc:	f9001813 	str	x19, [x0, #48]
DEFINE_U64_REG_READ_FUNC(esr_el1)
DEFINE_U64_REG_READ_FUNC(far_el1)
DEFINE_U64_REG_READ_FUNC(mpidr_el1)
/* Alias for reading this register to avoid ifdefs in code */
#define read_mpidr() read_mpidr_el1()
DEFINE_U64_REG_READ_FUNC(midr_el1)
 1105ac0:	d5380000 	mrs	x0, midr_el1
	return (midr >> MIDR_IMPLEMENTER_SHIFT) & MIDR_IMPLEMENTER_MASK;
 1105ac4:	53187c01 	lsr	w1, w0, #24
 1105ac8:	b00002b3 	adrp	x19, 115a000 <__scattered_array_1phys_mem_map+0x8>
	if (get_midr_implementer(midr) != MIDR_IMPLEMENTER_ARM)
 1105acc:	7101043f 	cmp	w1, #0x41
 1105ad0:	54000060 	b.eq	1105adc <thread_init_per_cpu+0x64>  // b.none
		return (vaddr_t)thread_excp_vect;
 1105ad4:	f9420e73 	ldr	x19, [x19, #1048]
 1105ad8:	14000024 	b	1105b68 <thread_init_per_cpu+0xf0>
	return (midr >> MIDR_PRIMARY_PART_NUM_SHIFT) &
 1105adc:	53043c00 	ubfx	w0, w0, #4, #12
	switch (get_midr_primary_part(midr)) {
 1105ae0:	51341c00 	sub	w0, w0, #0xd07
 1105ae4:	71000c1f 	cmp	w0, #0x3
 1105ae8:	54ffff68 	b.hi	1105ad4 <thread_init_per_cpu+0x5c>  // b.pmore
	r = thread_smc(SMCCC_VERSION, 0, 0, 0);
 1105aec:	d2800003 	mov	x3, #0x0                   	// #0
 1105af0:	d2800002 	mov	x2, #0x0                   	// #0
 1105af4:	d2800001 	mov	x1, #0x0                   	// #0
 1105af8:	d2b00000 	mov	x0, #0x80000000            	// #2147483648
 1105afc:	90000274 	adrp	x20, 1151000 <small_prime+0x168>
 1105b00:	97fffb4c 	bl	1104830 <thread_smc>
	if (r < 0x10001)	/* compare with version 1.1 */
 1105b04:	7140401f 	cmp	w0, #0x10, lsl #12
 1105b08:	5400038d 	b.le	1105b78 <thread_init_per_cpu+0x100>
	r = thread_smc(SMCCC_ARCH_FEATURES, SMCCC_ARCH_WORKAROUND_1, 0, 0);
 1105b0c:	d2800003 	mov	x3, #0x0                   	// #0
 1105b10:	d2800002 	mov	x2, #0x0                   	// #0
 1105b14:	320183e1 	mov	w1, #0x80008000            	// #-2147450880
 1105b18:	320107e0 	mov	w0, #0x80000001            	// #-2147483647
 1105b1c:	97fffb45 	bl	1104830 <thread_smc>
	if (probe_workaround_available()) {
 1105b20:	37f802c0 	tbnz	w0, #31, 1105b78 <thread_init_per_cpu+0x100>
		DMSG("SMCCC_ARCH_WORKAROUND_1 (%#08" PRIx32 ") available",
 1105b24:	91242694 	add	x20, x20, #0x909
 1105b28:	320183e5 	mov	w5, #0x80008000            	// #-2147450880
 1105b2c:	aa1403e0 	mov	x0, x20
 1105b30:	52800023 	mov	w3, #0x1                   	// #1
 1105b34:	52800062 	mov	w2, #0x3                   	// #3
 1105b38:	52808fa1 	mov	w1, #0x47d                 	// #1149
		return select_vector((vaddr_t)thread_excp_vect_workaround);
 1105b3c:	f941e673 	ldr	x19, [x19, #968]
		DMSG("SMCCC_ARCH_WORKAROUND_1 (%#08" PRIx32 ") available",
 1105b40:	90000264 	adrp	x4, 1151000 <small_prime+0x168>
 1105b44:	911a7484 	add	x4, x4, #0x69d
 1105b48:	9400fc7f 	bl	1144d44 <trace_printf>
		DMSG("SMC Workaround for CVE-2017-5715 used");
 1105b4c:	90000264 	adrp	x4, 1151000 <small_prime+0x168>
 1105b50:	aa1403e0 	mov	x0, x20
 1105b54:	911b1c84 	add	x4, x4, #0x6c7
 1105b58:	52800023 	mov	w3, #0x1                   	// #1
 1105b5c:	52800062 	mov	w2, #0x3                   	// #3
 1105b60:	52808fe1 	mov	w1, #0x47f                 	// #1151
 1105b64:	9400fc78 	bl	1144d44 <trace_printf>
	thread_init_vbar(get_excp_vect());
 1105b68:	aa1303e0 	mov	x0, x19
}
 1105b6c:	a94153f3 	ldp	x19, x20, [sp, #16]
 1105b70:	a8c27bfd 	ldp	x29, x30, [sp], #32
	thread_init_vbar(get_excp_vect());
 1105b74:	17fffb31 	b	1104838 <thread_init_vbar>
	DMSG("SMCCC_ARCH_WORKAROUND_1 (%#08" PRIx32 ") unavailable",
 1105b78:	91242694 	add	x20, x20, #0x909
 1105b7c:	320183e5 	mov	w5, #0x80008000            	// #-2147450880
 1105b80:	aa1403e0 	mov	x0, x20
 1105b84:	52800023 	mov	w3, #0x1                   	// #1
 1105b88:	52800062 	mov	w2, #0x3                   	// #3
 1105b8c:	52809061 	mov	w1, #0x483                 	// #1155
 1105b90:	90000264 	adrp	x4, 1151000 <small_prime+0x168>
 1105b94:	911bb484 	add	x4, x4, #0x6ed
 1105b98:	9400fc6b 	bl	1144d44 <trace_printf>
	DMSG("SMC Workaround for CVE-2017-5715 not needed (if ARM-TF is up to date)");
 1105b9c:	aa1403e0 	mov	x0, x20
 1105ba0:	90000264 	adrp	x4, 1151000 <small_prime+0x168>
 1105ba4:	52800023 	mov	w3, #0x1                   	// #1
 1105ba8:	911c6484 	add	x4, x4, #0x719
 1105bac:	52800062 	mov	w2, #0x3                   	// #3
 1105bb0:	528090a1 	mov	w1, #0x485                 	// #1157
 1105bb4:	9400fc64 	bl	1144d44 <trace_printf>
	return (vaddr_t)thread_excp_vect;
 1105bb8:	f9420e73 	ldr	x19, [x19, #1048]
 1105bbc:	17ffffeb 	b	1105b68 <thread_init_per_cpu+0xf0>

0000000001105bc0 <thread_get_tsd>:
{
 1105bc0:	a9bf7bfd 	stp	x29, x30, [sp, #-16]!
 1105bc4:	910003fd 	mov	x29, sp
	return &threads[thread_get_id()].tsd;
 1105bc8:	97fffe27 	bl	1105464 <thread_get_id>
 1105bcc:	13003c00 	sxth	w0, w0
 1105bd0:	d280b502 	mov	x2, #0x5a8                 	// #1448
 1105bd4:	5280e001 	mov	w1, #0x700                 	// #1792
}
 1105bd8:	a8c17bfd 	ldp	x29, x30, [sp], #16
	return &threads[thread_get_id()].tsd;
 1105bdc:	9b200821 	smaddl	x1, w1, w0, x2
 1105be0:	b00002a0 	adrp	x0, 115a000 <__scattered_array_1phys_mem_map+0x8>
}
 1105be4:	f9417800 	ldr	x0, [x0, #752]
 1105be8:	8b010000 	add	x0, x0, x1
 1105bec:	d65f03c0 	ret

0000000001105bf0 <thread_get_ctx_regs>:
{
 1105bf0:	a9bf7bfd 	stp	x29, x30, [sp, #-16]!
 1105bf4:	910003fd 	mov	x29, sp
	struct thread_core_local *l = thread_get_core_local();
 1105bf8:	97fffd5f 	bl	1105174 <thread_get_core_local>
	assert(l->curr_thread != THREAD_ID_INVALID);
 1105bfc:	79c05000 	ldrsh	w0, [x0, #40]
 1105c00:	3100041f 	cmn	w0, #0x1
 1105c04:	54000141 	b.ne	1105c2c <thread_get_ctx_regs+0x3c>  // b.any
 1105c08:	90000263 	adrp	x3, 1151000 <small_prime+0x168>
 1105c0c:	90000261 	adrp	x1, 1151000 <small_prime+0x168>
 1105c10:	91245c63 	add	x3, x3, #0x917
 1105c14:	91106c21 	add	x1, x1, #0x41b
 1105c18:	90000260 	adrp	x0, 1151000 <small_prime+0x168>
 1105c1c:	911d7c00 	add	x0, x0, #0x75f
 1105c20:	528099a2 	mov	w2, #0x4cd                 	// #1229
 1105c24:	940031a2 	bl	11122ac <_assert_log>
 1105c28:	940031b2 	bl	11122f0 <_assert_break>
	return &threads[l->curr_thread].regs;
 1105c2c:	b00002a1 	adrp	x1, 115a000 <__scattered_array_1phys_mem_map+0x8>
}
 1105c30:	5280e002 	mov	w2, #0x700                 	// #1792
 1105c34:	a8c17bfd 	ldp	x29, x30, [sp], #16
 1105c38:	f9417821 	ldr	x1, [x1, #752]
 1105c3c:	9b220400 	smaddl	x0, w0, w2, x1
 1105c40:	d65f03c0 	ret

0000000001105c44 <thread_set_foreign_intr>:
{
 1105c44:	a9be7bfd 	stp	x29, x30, [sp, #-32]!
 1105c48:	910003fd 	mov	x29, sp
 1105c4c:	a90153f3 	stp	x19, x20, [sp, #16]
 1105c50:	12001c14 	and	w20, w0, #0xff
	uint32_t exceptions = thread_mask_exceptions(THREAD_EXCP_FOREIGN_INTR);
 1105c54:	52800040 	mov	w0, #0x2                   	// #2
 1105c58:	97fffd38 	bl	1105138 <thread_mask_exceptions>
 1105c5c:	2a0003f3 	mov	w19, w0
	l = thread_get_core_local();
 1105c60:	97fffd45 	bl	1105174 <thread_get_core_local>
	assert(l->curr_thread != THREAD_ID_INVALID);
 1105c64:	79805001 	ldrsh	x1, [x0, #40]
 1105c68:	3100043f 	cmn	w1, #0x1
 1105c6c:	54000141 	b.ne	1105c94 <thread_set_foreign_intr+0x50>  // b.any
 1105c70:	90000263 	adrp	x3, 1151000 <small_prime+0x168>
 1105c74:	90000261 	adrp	x1, 1151000 <small_prime+0x168>
 1105c78:	9124ac63 	add	x3, x3, #0x92b
 1105c7c:	91106c21 	add	x1, x1, #0x41b
 1105c80:	90000260 	adrp	x0, 1151000 <small_prime+0x168>
 1105c84:	911d7c00 	add	x0, x0, #0x75f
 1105c88:	52809b22 	mov	w2, #0x4d9                 	// #1241
 1105c8c:	94003188 	bl	11122ac <_assert_log>
 1105c90:	94003198 	bl	11122f0 <_assert_break>
	if (enable) {
 1105c94:	b00002a0 	adrp	x0, 115a000 <__scattered_array_1phys_mem_map+0x8>
 1105c98:	d280e002 	mov	x2, #0x700                 	// #1792
 1105c9c:	f9417800 	ldr	x0, [x0, #752]
 1105ca0:	9b020021 	madd	x1, x1, x2, x0
 1105ca4:	b9412822 	ldr	w2, [x1, #296]
 1105ca8:	340000f4 	cbz	w20, 1105cc4 <thread_set_foreign_intr+0x80>
		threads[l->curr_thread].flags |=
 1105cac:	321f0042 	orr	w2, w2, #0x2
		thread_set_exceptions(exceptions & ~THREAD_EXCP_FOREIGN_INTR);
 1105cb0:	121e7a60 	and	w0, w19, #0xfffffffd
}
 1105cb4:	a94153f3 	ldp	x19, x20, [sp, #16]
		threads[l->curr_thread].flags |=
 1105cb8:	b9012822 	str	w2, [x1, #296]
}
 1105cbc:	a8c27bfd 	ldp	x29, x30, [sp], #32
		thread_set_exceptions(exceptions & ~THREAD_EXCP_FOREIGN_INTR);
 1105cc0:	17fffd05 	b	11050d4 <thread_set_exceptions>
		threads[l->curr_thread].flags &=
 1105cc4:	121e7842 	and	w2, w2, #0xfffffffd
}
 1105cc8:	a94153f3 	ldp	x19, x20, [sp, #16]
		threads[l->curr_thread].flags &=
 1105ccc:	b9012822 	str	w2, [x1, #296]
}
 1105cd0:	a8c27bfd 	ldp	x29, x30, [sp], #32
 1105cd4:	d65f03c0 	ret

0000000001105cd8 <thread_restore_foreign_intr>:
{
 1105cd8:	a9be7bfd 	stp	x29, x30, [sp, #-32]!
	uint32_t exceptions = thread_mask_exceptions(THREAD_EXCP_FOREIGN_INTR);
 1105cdc:	52800040 	mov	w0, #0x2                   	// #2
{
 1105ce0:	910003fd 	mov	x29, sp
 1105ce4:	f9000bf3 	str	x19, [sp, #16]
	uint32_t exceptions = thread_mask_exceptions(THREAD_EXCP_FOREIGN_INTR);
 1105ce8:	97fffd14 	bl	1105138 <thread_mask_exceptions>
 1105cec:	2a0003f3 	mov	w19, w0
	l = thread_get_core_local();
 1105cf0:	97fffd21 	bl	1105174 <thread_get_core_local>
	assert(l->curr_thread != THREAD_ID_INVALID);
 1105cf4:	79805001 	ldrsh	x1, [x0, #40]
 1105cf8:	3100043f 	cmn	w1, #0x1
 1105cfc:	54000141 	b.ne	1105d24 <thread_restore_foreign_intr+0x4c>  // b.any
 1105d00:	90000263 	adrp	x3, 1151000 <small_prime+0x168>
 1105d04:	90000261 	adrp	x1, 1151000 <small_prime+0x168>
 1105d08:	91250c63 	add	x3, x3, #0x943
 1105d0c:	91106c21 	add	x1, x1, #0x41b
 1105d10:	90000260 	adrp	x0, 1151000 <small_prime+0x168>
 1105d14:	911d7c00 	add	x0, x0, #0x75f
 1105d18:	52809e22 	mov	w2, #0x4f1                 	// #1265
 1105d1c:	94003164 	bl	11122ac <_assert_log>
 1105d20:	94003174 	bl	11122f0 <_assert_break>
	if (threads[l->curr_thread].flags & THREAD_FLAGS_FOREIGN_INTR_ENABLE)
 1105d24:	b00002a0 	adrp	x0, 115a000 <__scattered_array_1phys_mem_map+0x8>
 1105d28:	d280e002 	mov	x2, #0x700                 	// #1792
 1105d2c:	f9417800 	ldr	x0, [x0, #752]
 1105d30:	9b020021 	madd	x1, x1, x2, x0
 1105d34:	b9412820 	ldr	w0, [x1, #296]
 1105d38:	360800a0 	tbz	w0, #1, 1105d4c <thread_restore_foreign_intr+0x74>
		thread_set_exceptions(exceptions & ~THREAD_EXCP_FOREIGN_INTR);
 1105d3c:	121e7a60 	and	w0, w19, #0xfffffffd
}
 1105d40:	f9400bf3 	ldr	x19, [sp, #16]
 1105d44:	a8c27bfd 	ldp	x29, x30, [sp], #32
		thread_set_exceptions(exceptions & ~THREAD_EXCP_FOREIGN_INTR);
 1105d48:	17fffce3 	b	11050d4 <thread_set_exceptions>
}
 1105d4c:	f9400bf3 	ldr	x19, [sp, #16]
 1105d50:	a8c27bfd 	ldp	x29, x30, [sp], #32
 1105d54:	d65f03c0 	ret

0000000001105d58 <thread_kernel_save_vfp>:
{
 1105d58:	a9be7bfd 	stp	x29, x30, [sp, #-32]!
 1105d5c:	910003fd 	mov	x29, sp
 1105d60:	f9000bf3 	str	x19, [sp, #16]
	struct thread_ctx *thr = threads + thread_get_id();
 1105d64:	97fffdc0 	bl	1105464 <thread_get_id>
 1105d68:	13003c13 	sxth	w19, w0
	assert(thread_get_exceptions() & THREAD_EXCP_FOREIGN_INTR);
 1105d6c:	97fffc6a 	bl	1104f14 <thread_get_exceptions>
 1105d70:	37080140 	tbnz	w0, #1, 1105d98 <thread_kernel_save_vfp+0x40>
 1105d74:	90000263 	adrp	x3, 1151000 <small_prime+0x168>
 1105d78:	90000261 	adrp	x1, 1151000 <small_prime+0x168>
 1105d7c:	91257c63 	add	x3, x3, #0x95f
 1105d80:	91106c21 	add	x1, x1, #0x41b
 1105d84:	90000260 	adrp	x0, 1151000 <small_prime+0x168>
 1105d88:	91144000 	add	x0, x0, #0x510
 1105d8c:	5280a582 	mov	w2, #0x52c                 	// #1324
 1105d90:	94003147 	bl	11122ac <_assert_log>
 1105d94:	94003157 	bl	11122f0 <_assert_break>
	if (vfp_is_enabled()) {
 1105d98:	94000776 	bl	1107b70 <vfp_is_enabled>
 1105d9c:	72001c1f 	tst	w0, #0xff
 1105da0:	54000120 	b.eq	1105dc4 <thread_kernel_save_vfp+0x6c>  // b.none
	struct thread_ctx *thr = threads + thread_get_id();
 1105da4:	b00002a0 	adrp	x0, 115a000 <__scattered_array_1phys_mem_map+0x8>
 1105da8:	5280e001 	mov	w1, #0x700                 	// #1792
 1105dac:	f9417800 	ldr	x0, [x0, #752]
 1105db0:	9b210273 	smaddl	x19, w19, w1, x0
		vfp_lazy_save_state_init(&thr->vfp_state.sec);
 1105db4:	910dc260 	add	x0, x19, #0x370
 1105db8:	9400077d 	bl	1107bac <vfp_lazy_save_state_init>
		thr->vfp_state.sec_lazy_saved = true;
 1105dbc:	52800020 	mov	w0, #0x1                   	// #1
 1105dc0:	39054a60 	strb	w0, [x19, #338]
}
 1105dc4:	f9400bf3 	ldr	x19, [sp, #16]
 1105dc8:	a8c27bfd 	ldp	x29, x30, [sp], #32
 1105dcc:	d65f03c0 	ret

0000000001105dd0 <thread_kernel_restore_vfp>:
{
 1105dd0:	a9be7bfd 	stp	x29, x30, [sp, #-32]!
 1105dd4:	910003fd 	mov	x29, sp
 1105dd8:	f9000bf3 	str	x19, [sp, #16]
	struct thread_ctx *thr = threads + thread_get_id();
 1105ddc:	b00002b3 	adrp	x19, 115a000 <__scattered_array_1phys_mem_map+0x8>
 1105de0:	97fffda1 	bl	1105464 <thread_get_id>
 1105de4:	13003c00 	sxth	w0, w0
 1105de8:	f9417a73 	ldr	x19, [x19, #752]
 1105dec:	5280e001 	mov	w1, #0x700                 	// #1792
 1105df0:	9b214c13 	smaddl	x19, w0, w1, x19
	assert(thread_get_exceptions() & THREAD_EXCP_FOREIGN_INTR);
 1105df4:	97fffc48 	bl	1104f14 <thread_get_exceptions>
 1105df8:	37080140 	tbnz	w0, #1, 1105e20 <thread_kernel_restore_vfp+0x50>
 1105dfc:	90000263 	adrp	x3, 1151000 <small_prime+0x168>
 1105e00:	90000261 	adrp	x1, 1151000 <small_prime+0x168>
 1105e04:	90000260 	adrp	x0, 1151000 <small_prime+0x168>
 1105e08:	9125d863 	add	x3, x3, #0x976
 1105e0c:	91106c21 	add	x1, x1, #0x41b
 1105e10:	91144000 	add	x0, x0, #0x510
 1105e14:	5280a6e2 	mov	w2, #0x537                 	// #1335
	assert(!vfp_is_enabled());
 1105e18:	94003125 	bl	11122ac <_assert_log>
 1105e1c:	94003135 	bl	11122f0 <_assert_break>
 1105e20:	94000754 	bl	1107b70 <vfp_is_enabled>
 1105e24:	72001c1f 	tst	w0, #0xff
 1105e28:	54000120 	b.eq	1105e4c <thread_kernel_restore_vfp+0x7c>  // b.none
 1105e2c:	90000263 	adrp	x3, 1151000 <small_prime+0x168>
 1105e30:	90000261 	adrp	x1, 1151000 <small_prime+0x168>
 1105e34:	90000260 	adrp	x0, 1151000 <small_prime+0x168>
 1105e38:	9125d863 	add	x3, x3, #0x976
 1105e3c:	91106c21 	add	x1, x1, #0x41b
 1105e40:	911e0c00 	add	x0, x0, #0x783
 1105e44:	5280a702 	mov	w2, #0x538                 	// #1336
 1105e48:	17fffff4 	b	1105e18 <thread_kernel_restore_vfp+0x48>
	if (thr->vfp_state.sec_lazy_saved) {
 1105e4c:	39454a60 	ldrb	w0, [x19, #338]
 1105e50:	340000c0 	cbz	w0, 1105e68 <thread_kernel_restore_vfp+0x98>
		vfp_lazy_restore_state(&thr->vfp_state.sec,
 1105e54:	39454661 	ldrb	w1, [x19, #337]
 1105e58:	910dc260 	add	x0, x19, #0x370
 1105e5c:	94000775 	bl	1107c30 <vfp_lazy_restore_state>
		thr->vfp_state.sec_saved = false;
 1105e60:	3905467f 	strb	wzr, [x19, #337]
		thr->vfp_state.sec_lazy_saved = false;
 1105e64:	39054a7f 	strb	wzr, [x19, #338]
}
 1105e68:	f9400bf3 	ldr	x19, [sp, #16]
 1105e6c:	a8c27bfd 	ldp	x29, x30, [sp], #32
 1105e70:	d65f03c0 	ret

0000000001105e74 <thread_user_enable_vfp>:
{
 1105e74:	a9bd7bfd 	stp	x29, x30, [sp, #-48]!
 1105e78:	910003fd 	mov	x29, sp
 1105e7c:	a90153f3 	stp	x19, x20, [sp, #16]
 1105e80:	f90013f5 	str	x21, [sp, #32]
 1105e84:	aa0003f5 	mov	x21, x0
	struct thread_ctx *thr = threads + thread_get_id();
 1105e88:	97fffd77 	bl	1105464 <thread_get_id>
 1105e8c:	13003c13 	sxth	w19, w0
 1105e90:	b00002a1 	adrp	x1, 115a000 <__scattered_array_1phys_mem_map+0x8>
 1105e94:	5280e000 	mov	w0, #0x700                 	// #1792
 1105e98:	f9417821 	ldr	x1, [x1, #752]
 1105e9c:	9b200673 	smaddl	x19, w19, w0, x1
	struct thread_user_vfp_state *tuv = thr->vfp_state.uvfp;
 1105ea0:	f942c274 	ldr	x20, [x19, #1408]
	assert(thread_get_exceptions() & THREAD_EXCP_FOREIGN_INTR);
 1105ea4:	97fffc1c 	bl	1104f14 <thread_get_exceptions>
 1105ea8:	37080140 	tbnz	w0, #1, 1105ed0 <thread_user_enable_vfp+0x5c>
 1105eac:	90000263 	adrp	x3, 1151000 <small_prime+0x168>
 1105eb0:	90000261 	adrp	x1, 1151000 <small_prime+0x168>
 1105eb4:	90000260 	adrp	x0, 1151000 <small_prime+0x168>
 1105eb8:	91264063 	add	x3, x3, #0x990
 1105ebc:	91106c21 	add	x1, x1, #0x41b
 1105ec0:	91144000 	add	x0, x0, #0x510
 1105ec4:	5280a8c2 	mov	w2, #0x546                 	// #1350
	assert(!vfp_is_enabled());
 1105ec8:	940030f9 	bl	11122ac <_assert_log>
 1105ecc:	94003109 	bl	11122f0 <_assert_break>
 1105ed0:	94000728 	bl	1107b70 <vfp_is_enabled>
 1105ed4:	72001c1f 	tst	w0, #0xff
 1105ed8:	54000120 	b.eq	1105efc <thread_user_enable_vfp+0x88>  // b.none
 1105edc:	90000263 	adrp	x3, 1151000 <small_prime+0x168>
 1105ee0:	90000261 	adrp	x1, 1151000 <small_prime+0x168>
 1105ee4:	90000260 	adrp	x0, 1151000 <small_prime+0x168>
 1105ee8:	91264063 	add	x3, x3, #0x990
 1105eec:	91106c21 	add	x1, x1, #0x41b
 1105ef0:	911e0c00 	add	x0, x0, #0x783
 1105ef4:	5280a8e2 	mov	w2, #0x547                 	// #1351
 1105ef8:	17fffff4 	b	1105ec8 <thread_user_enable_vfp+0x54>
	if (!thr->vfp_state.ns_saved) {
 1105efc:	39454260 	ldrb	w0, [x19, #336]
 1105f00:	35000220 	cbnz	w0, 1105f44 <thread_user_enable_vfp+0xd0>
		vfp_lazy_save_state_final(&thr->vfp_state.ns,
 1105f04:	91058260 	add	x0, x19, #0x160
 1105f08:	52800021 	mov	w1, #0x1                   	// #1
 1105f0c:	9400072b 	bl	1107bb8 <vfp_lazy_save_state_final>
		thr->vfp_state.ns_saved = true;
 1105f10:	52800020 	mov	w0, #0x1                   	// #1
 1105f14:	39054260 	strb	w0, [x19, #336]
	if (uvfp->lazy_saved)
 1105f18:	394842a0 	ldrb	w0, [x21, #528]
 1105f1c:	34000080 	cbz	w0, 1105f2c <thread_user_enable_vfp+0xb8>
		vfp_lazy_restore_state(&uvfp->vfp, uvfp->saved);
 1105f20:	394846a1 	ldrb	w1, [x21, #529]
 1105f24:	aa1503e0 	mov	x0, x21
 1105f28:	94000742 	bl	1107c30 <vfp_lazy_restore_state>
	uvfp->lazy_saved = false;
 1105f2c:	790422bf 	strh	wzr, [x21, #528]
	thr->vfp_state.uvfp = uvfp;
 1105f30:	f902c275 	str	x21, [x19, #1408]
}
 1105f34:	a94153f3 	ldp	x19, x20, [sp, #16]
 1105f38:	f94013f5 	ldr	x21, [sp, #32]
 1105f3c:	a8c37bfd 	ldp	x29, x30, [sp], #48
	vfp_enable();
 1105f40:	14000710 	b	1107b80 <vfp_enable>
	} else if (tuv && uvfp != tuv) {
 1105f44:	f100029f 	cmp	x20, #0x0
 1105f48:	fa551284 	ccmp	x20, x21, #0x4, ne  // ne = any
 1105f4c:	54fffe60 	b.eq	1105f18 <thread_user_enable_vfp+0xa4>  // b.none
		if (tuv->lazy_saved && !tuv->saved) {
 1105f50:	39484280 	ldrb	w0, [x20, #528]
 1105f54:	34fffe20 	cbz	w0, 1105f18 <thread_user_enable_vfp+0xa4>
 1105f58:	39484680 	ldrb	w0, [x20, #529]
 1105f5c:	35fffde0 	cbnz	w0, 1105f18 <thread_user_enable_vfp+0xa4>
			vfp_lazy_save_state_final(&tuv->vfp,
 1105f60:	aa1403e0 	mov	x0, x20
 1105f64:	52800001 	mov	w1, #0x0                   	// #0
 1105f68:	94000714 	bl	1107bb8 <vfp_lazy_save_state_final>
			tuv->saved = true;
 1105f6c:	52800020 	mov	w0, #0x1                   	// #1
 1105f70:	39084680 	strb	w0, [x20, #529]
 1105f74:	17ffffe9 	b	1105f18 <thread_user_enable_vfp+0xa4>

0000000001105f78 <thread_user_save_vfp>:
{
 1105f78:	a9be7bfd 	stp	x29, x30, [sp, #-32]!
 1105f7c:	910003fd 	mov	x29, sp
 1105f80:	f9000bf3 	str	x19, [sp, #16]
	struct thread_ctx *thr = threads + thread_get_id();
 1105f84:	97fffd38 	bl	1105464 <thread_get_id>
	struct thread_user_vfp_state *tuv = thr->vfp_state.uvfp;
 1105f88:	b00002a1 	adrp	x1, 115a000 <__scattered_array_1phys_mem_map+0x8>
	struct thread_ctx *thr = threads + thread_get_id();
 1105f8c:	13003c00 	sxth	w0, w0
	struct thread_user_vfp_state *tuv = thr->vfp_state.uvfp;
 1105f90:	5280e002 	mov	w2, #0x700                 	// #1792
 1105f94:	f9417821 	ldr	x1, [x1, #752]
 1105f98:	9b220400 	smaddl	x0, w0, w2, x1
 1105f9c:	f942c013 	ldr	x19, [x0, #1408]
	assert(thread_get_exceptions() & THREAD_EXCP_FOREIGN_INTR);
 1105fa0:	97fffbdd 	bl	1104f14 <thread_get_exceptions>
 1105fa4:	37080140 	tbnz	w0, #1, 1105fcc <thread_user_save_vfp+0x54>
 1105fa8:	90000263 	adrp	x3, 1151000 <small_prime+0x168>
 1105fac:	90000261 	adrp	x1, 1151000 <small_prime+0x168>
 1105fb0:	90000260 	adrp	x0, 1151000 <small_prime+0x168>
 1105fb4:	91269c63 	add	x3, x3, #0x9a7
 1105fb8:	91106c21 	add	x1, x1, #0x41b
 1105fbc:	91144000 	add	x0, x0, #0x510
 1105fc0:	5280ac62 	mov	w2, #0x563                 	// #1379
	assert(tuv && !tuv->lazy_saved && !tuv->saved);
 1105fc4:	940030ba 	bl	11122ac <_assert_log>
 1105fc8:	940030ca 	bl	11122f0 <_assert_break>
	if (!vfp_is_enabled())
 1105fcc:	940006e9 	bl	1107b70 <vfp_is_enabled>
 1105fd0:	72001c1f 	tst	w0, #0xff
 1105fd4:	54000200 	b.eq	1106014 <thread_user_save_vfp+0x9c>  // b.none
	assert(tuv && !tuv->lazy_saved && !tuv->saved);
 1105fd8:	b4000073 	cbz	x19, 1105fe4 <thread_user_save_vfp+0x6c>
 1105fdc:	79442260 	ldrh	w0, [x19, #528]
 1105fe0:	34000120 	cbz	w0, 1106004 <thread_user_save_vfp+0x8c>
 1105fe4:	90000263 	adrp	x3, 1151000 <small_prime+0x168>
 1105fe8:	90000261 	adrp	x1, 1151000 <small_prime+0x168>
 1105fec:	90000260 	adrp	x0, 1151000 <small_prime+0x168>
 1105ff0:	91269c63 	add	x3, x3, #0x9a7
 1105ff4:	91106c21 	add	x1, x1, #0x41b
 1105ff8:	911e5400 	add	x0, x0, #0x795
 1105ffc:	5280ace2 	mov	w2, #0x567                 	// #1383
 1106000:	17fffff1 	b	1105fc4 <thread_user_save_vfp+0x4c>
	vfp_lazy_save_state_init(&tuv->vfp);
 1106004:	aa1303e0 	mov	x0, x19
 1106008:	940006e9 	bl	1107bac <vfp_lazy_save_state_init>
	tuv->lazy_saved = true;
 110600c:	52800020 	mov	w0, #0x1                   	// #1
 1106010:	39084260 	strb	w0, [x19, #528]
}
 1106014:	f9400bf3 	ldr	x19, [sp, #16]
 1106018:	a8c27bfd 	ldp	x29, x30, [sp], #32
 110601c:	d65f03c0 	ret

0000000001106020 <thread_state_suspend>:
{
 1106020:	a9bb7bfd 	stp	x29, x30, [sp, #-80]!
 1106024:	910003fd 	mov	x29, sp
 1106028:	a90153f3 	stp	x19, x20, [sp, #16]
 110602c:	2a0103f4 	mov	w20, w1
 1106030:	a9025bf5 	stp	x21, x22, [sp, #32]
 1106034:	a90363f7 	stp	x23, x24, [sp, #48]
 1106038:	a9046bf9 	stp	x25, x26, [sp, #64]
 110603c:	2a0003fa 	mov	w26, w0
 1106040:	aa0203f9 	mov	x25, x2
	struct thread_core_local *l = thread_get_core_local();
 1106044:	97fffc4c 	bl	1105174 <thread_get_core_local>
	int ct = l->curr_thread;
 1106048:	79c05015 	ldrsh	w21, [x0, #40]
	assert(ct != THREAD_ID_INVALID);
 110604c:	310006bf 	cmn	w21, #0x1
 1106050:	54000141 	b.ne	1106078 <thread_state_suspend+0x58>  // b.any
 1106054:	f0000243 	adrp	x3, 1151000 <small_prime+0x168>
 1106058:	f0000241 	adrp	x1, 1151000 <small_prime+0x168>
 110605c:	f0000240 	adrp	x0, 1151000 <small_prime+0x168>
 1106060:	91239863 	add	x3, x3, #0x8e6
 1106064:	91106c21 	add	x1, x1, #0x41b
 1106068:	91177000 	add	x0, x0, #0x5dc
 110606c:	52806f62 	mov	w2, #0x37b                 	// #891
	assert(threads[ct].state == THREAD_STATE_ACTIVE);
 1106070:	9400308f 	bl	11122ac <_assert_log>
 1106074:	9400309f 	bl	11122f0 <_assert_break>
 1106078:	aa0003f6 	mov	x22, x0
	if (core_mmu_user_mapping_is_active())
 110607c:	9400145b 	bl	110b1e8 <core_mmu_user_mapping_is_active>
	thread_check_canaries();
 1106080:	97fffaec 	bl	1104c30 <thread_check_canaries>
	if (cpsr & (SPSR_MODE_RW_32 << SPSR_MODE_RW_SHIFT))
 1106084:	37200074 	tbnz	w20, #4, 1106090 <thread_state_suspend+0x70>
	if (((cpsr >> SPSR_64_MODE_EL_SHIFT) & SPSR_64_MODE_EL_MASK) ==
 1106088:	f27e069f 	tst	x20, #0xc
 110608c:	54000041 	b.ne	1106094 <thread_state_suspend+0x74>  // b.any
		thread_user_save_vfp();
 1106090:	97ffffba 	bl	1105f78 <thread_user_save_vfp>
	assert(threads[ct].state == THREAD_STATE_ACTIVE);
